----------------
IN: _start
0x00010524:  024000ef          jal                     ra,36                   # 0x10548

----------------
IN: 
0x00010548:  00074197          auipc                   gp,116                  # 0x84548
0x0001054c:  b5018193          addi                    gp,gp,-1200
0x00010550:  8082              ret                     

----------------
IN: _start
0x00010528:  87aa              mv                      a5,a0
0x0001052a:  00000517          auipc                   a0,0                    # 0x1052a
0x0001052e:  01c50513          addi                    a0,a0,28
0x00010532:  6582              ld                      a1,0(sp)
0x00010534:  0030              addi                    a2,sp,8
0x00010536:  ff017113          andi                    sp,sp,-16
0x0001053a:  4681              mv                      a3,zero
0x0001053c:  4701              mv                      a4,zero
0x0001053e:  880a              mv                      a6,sp
0x00010540:  210000ef          jal                     ra,528                  # 0x10750

----------------
IN: __libc_start_main
0x00010750:  7119              addi                    sp,sp,-128
0x00010752:  00158713          addi                    a4,a1,1
0x00010756:  f8a2              sd                      s0,112(sp)
0x00010758:  f0ca              sd                      s2,96(sp)
0x0001075a:  ecce              sd                      s3,88(sp)
0x0001075c:  e0da              sd                      s6,64(sp)
0x0001075e:  fc5e              sd                      s7,56(sp)
0x00010760:  f862              sd                      s8,48(sp)
0x00010762:  fc86              sd                      ra,120(sp)
0x00010764:  f4a6              sd                      s1,104(sp)
0x00010766:  e8d2              sd                      s4,80(sp)
0x00010768:  e4d6              sd                      s5,72(sp)
0x0001076a:  f466              sd                      s9,40(sp)
0x0001076c:  f06a              sd                      s10,32(sp)
0x0001076e:  ec6e              sd                      s11,24(sp)
0x00010770:  0100              addi                    s0,sp,128
0x00010772:  070e              slli                    a4,a4,3
0x00010774:  9732              add                     a4,a4,a2
0x00010776:  00078b17          auipc                   s6,120                  # 0x88776
0x0001077a:  e8ab0b13          addi                    s6,s6,-374
0x0001077e:  8bbe              mv                      s7,a5
0x00010780:  892e              mv                      s2,a1
0x00010782:  89b2              mv                      s3,a2
0x00010784:  8c2a              mv                      s8,a0
0x00010786:  00eb3023          sd                      a4,0(s6)
0x0001078a:  00070797          auipc                   a5,112                  # 0x8078a
0x0001078e:  5b07bb23          sd                      a6,1462(a5)
0x00010792:  631c              ld                      a5,0(a4)
0x00010794:  0721              addi                    a4,a4,8
0x00010796:  fff5              bnez                    a5,-4                   # 0x10792

----------------
IN: __libc_start_main
0x00010792:  631c              ld                      a5,0(a4)
0x00010794:  0721              addi                    a4,a4,8
0x00010796:  fff5              bnez                    a5,-4                   # 0x10792

----------------
IN: __libc_start_main
0x00010798:  853a              mv                      a0,a4
0x0001079a:  76a0a0ef          jal                     ra,42858                # 0x1af04

----------------
IN: _dl_aux_init
0x0001af04:  7121              addi                    sp,sp,-448
0x0001af06:  fb22              sd                      s0,432(sp)
0x0001af08:  f726              sd                      s1,424(sp)
0x0001af0a:  0380              addi                    s0,sp,448
0x0001af0c:  f34a              sd                      s2,416(sp)
0x0001af0e:  ff06              sd                      ra,440(sp)
0x0001af10:  84aa              mv                      s1,a0
0x0001af12:  0006d917          auipc                   s2,109                  # 0x87f12
0x0001af16:  73690913          addi                    s2,s2,1846
0x0001af1a:  1a000613          addi                    a2,zero,416
0x0001af1e:  4581              mv                      a1,zero
0x0001af20:  e4040513          addi                    a0,s0,-448
0x0001af24:  00993023          sd                      s1,0(s2)
0x0001af28:  857fd0ef          jal                     ra,-10154               # 0x1877e

----------------
IN: memset
0x0001877e:  1141              addi                    sp,sp,-16
0x00018780:  e422              sd                      s0,8(sp)
0x00018782:  0800              addi                    s0,sp,16
0x00018784:  471d              addi                    a4,zero,7
0x00018786:  87aa              mv                      a5,a0
0x00018788:  06c77b63          bleu                    a2,a4,118               # 0x187fe

----------------
IN: memset
0x0001878c:  01010737          lui                     a4,4112
0x00018790:  10170713          addi                    a4,a4,257
0x00018794:  0742              slli                    a4,a4,16
0x00018796:  10170713          addi                    a4,a4,257
0x0001879a:  0742              slli                    a4,a4,16
0x0001879c:  0ff5f813          andi                    a6,a1,255
0x000187a0:  10170713          addi                    a4,a4,257
0x000187a4:  00757693          andi                    a3,a0,7
0x000187a8:  02e80733          mul                     a4,a6,a4
0x000187ac:  c6b5              beqz                    a3,108                  # 0x18818

----------------
IN: memset
0x00018818:  00665693          srli                    a3,a2,6
0x0001881c:  f6c5              bnez                    a3,-88                  # 0x187c4

----------------
IN: memset
0x000187c4:  00669813          slli                    a6,a3,6
0x000187c8:  88be              mv                      a7,a5
0x000187ca:  983e              add                     a6,a6,a5
0x000187cc:  e398              sd                      a4,0(a5)
0x000187ce:  e798              sd                      a4,8(a5)
0x000187d0:  eb98              sd                      a4,16(a5)
0x000187d2:  ef98              sd                      a4,24(a5)
0x000187d4:  f398              sd                      a4,32(a5)
0x000187d6:  f798              sd                      a4,40(a5)
0x000187d8:  fb98              sd                      a4,48(a5)
0x000187da:  ff98              sd                      a4,56(a5)
0x000187dc:  04078793          addi                    a5,a5,64
0x000187e0:  ff0796e3          bne                     a5,a6,-20               # 0x187cc

----------------
IN: memset
0x000187cc:  e398              sd                      a4,0(a5)
0x000187ce:  e798              sd                      a4,8(a5)
0x000187d0:  eb98              sd                      a4,16(a5)
0x000187d2:  ef98              sd                      a4,24(a5)
0x000187d4:  f398              sd                      a4,32(a5)
0x000187d6:  f798              sd                      a4,40(a5)
0x000187d8:  fb98              sd                      a4,48(a5)
0x000187da:  ff98              sd                      a4,56(a5)
0x000187dc:  04078793          addi                    a5,a5,64
0x000187e0:  ff0796e3          bne                     a5,a6,-20               # 0x187cc

----------------
IN: memset
0x000187e4:  069a              slli                    a3,a3,6
0x000187e6:  96c6              add                     a3,a3,a7
0x000187e8:  00365793          srli                    a5,a2,3
0x000187ec:  8b9d              andi                    a5,a5,7
0x000187ee:  cf85              beqz                    a5,56                   # 0x18826

----------------
IN: memset
0x000187f0:  078e              slli                    a5,a5,3
0x000187f2:  97b6              add                     a5,a5,a3
0x000187f4:  e298              sd                      a4,0(a3)
0x000187f6:  06a1              addi                    a3,a3,8
0x000187f8:  fef69ee3          bne                     a3,a5,-4                # 0x187f4

----------------
IN: memset
0x000187f4:  e298              sd                      a4,0(a3)
0x000187f6:  06a1              addi                    a3,a3,8
0x000187f8:  fef69ee3          bne                     a3,a5,-4                # 0x187f4

----------------
IN: memset
0x000187fc:  8a1d              andi                    a2,a2,7
0x000187fe:  0ff5f593          andi                    a1,a1,255
0x00018802:  00c78733          add                     a4,a5,a2
0x00018806:  c611              beqz                    a2,12                   # 0x18812

----------------
IN: memset
0x00018812:  6422              ld                      s0,8(sp)
0x00018814:  0141              addi                    sp,sp,16
0x00018816:  8082              ret                     

----------------
IN: _dl_aux_init
0x0001af2c:  ffff5697          auipc                   a3,-11                  # 0xff2c
0x0001af30:  5f868693          addi                    a3,a3,1528
0x0001af34:  6705              lui                     a4,1
0x0001af36:  609c              ld                      a5,0(s1)
0x0001af38:  80070713          addi                    a4,a4,-2048
0x0001af3c:  e8d43423          sd                      a3,-376(s0)
0x0001af40:  6685              lui                     a3,1
0x0001af42:  e6d43823          sd                      a3,-400(s0)
0x0001af46:  fce43c23          sd                      a4,-40(s0)
0x0001af4a:  c7e9              beqz                    a5,202                  # 0x1b014

----------------
IN: _dl_aux_init
0x0001af4c:  03300713          addi                    a4,zero,51
0x0001af50:  00f76863          bgtu                    a5,a4,16                # 0x1af60

----------------
IN: _dl_aux_init
0x0001af54:  6494              ld                      a3,8(s1)
0x0001af56:  078e              slli                    a5,a5,3
0x0001af58:  1781              addi                    a5,a5,-32
0x0001af5a:  97a2              add                     a5,a5,s0
0x0001af5c:  e6d7b023          sd                      a3,-416(a5)
0x0001af60:  689c              ld                      a5,16(s1)
0x0001af62:  04c1              addi                    s1,s1,16
0x0001af64:  f7f5              bnez                    a5,-20                  # 0x1af50

----------------
IN: _dl_aux_init
0x0001af50:  00f76863          bgtu                    a5,a4,16                # 0x1af60

----------------
IN: _dl_aux_init
0x0001af66:  e7043583          ld                      a1,-400(s0)
0x0001af6a:  ed042603          lw                      a2,-304(s0)
0x0001af6e:  fd843703          ld                      a4,-40(s0)
0x0001af72:  00068697          auipc                   a3,104                  # 0x82f72
0x0001af76:  f5668693          addi                    a3,a3,-170
0x0001af7a:  e28c              sd                      a1,0(a3)
0x0001af7c:  ef843583          ld                      a1,-264(s0)
0x0001af80:  e698              sd                      a4,8(a3)
0x0001af82:  f4843703          ld                      a4,-184(s0)
0x0001af86:  00068517          auipc                   a0,104                  # 0x82f86
0x0001af8a:  54b52123          sw                      a1,1346(a0)
0x0001af8e:  eb843583          ld                      a1,-328(s0)
0x0001af92:  e5843783          ld                      a5,-424(s0)
0x0001af96:  02c92a23          sw                      a2,52(s2)
0x0001af9a:  00b93423          sd                      a1,8(s2)
0x0001af9e:  ec043583          ld                      a1,-320(s0)
0x0001afa2:  f0843603          ld                      a2,-248(s0)
0x0001afa6:  02e93c23          sd                      a4,56(s2)
0x0001afaa:  00b93823          sd                      a1,16(s2)
0x0001afae:  f1043583          ld                      a1,-240(s0)
0x0001afb2:  e6843703          ld                      a4,-408(s0)
0x0001afb6:  04f93023          sd                      a5,64(s2)
0x0001afba:  00b93c23          sd                      a1,24(s2)
0x0001afbe:  f2843583          ld                      a1,-216(s0)
0x0001afc2:  04e93423          sd                      a4,72(s2)
0x0001afc6:  02b93023          sd                      a1,32(s2)
0x0001afca:  f3043583          ld                      a1,-208(s0)
0x0001afce:  02b93423          sd                      a1,40(s2)
0x0001afd2:  ec843583          ld                      a1,-312(s0)
0x0001afd6:  02b92823          sw                      a1,48(s2)
0x0001afda:  00066597          auipc                   a1,102                  # 0x80fda
0x0001afde:  d2c5bb23          sd                      a2,-714(a1)
0x0001afe2:  e39d              bnez                    a5,38                   # 0x1b008

----------------
IN: _dl_aux_init
0x0001b008:  70fa              ld                      ra,440(sp)
0x0001b00a:  745a              ld                      s0,432(sp)
0x0001b00c:  74ba              ld                      s1,424(sp)
0x0001b00e:  791a              ld                      s2,416(sp)
0x0001b010:  6139              addi                    sp,sp,448
0x0001b012:  8082              ret                     

----------------
IN: __libc_start_main
0x0001079e:  000b3503          ld                      a0,0(s6)
0x000107a2:  00071497          auipc                   s1,113                  # 0x817a2
0x000107a6:  5564b483          ld                      s1,1366(s1)
0x000107aa:  00071a97          auipc                   s5,113                  # 0x817aa
0x000107ae:  4e6aba83          ld                      s5,1254(s5)
0x000107b2:  41c0a0ef          jal                     ra,42012                # 0x1abce

----------------
IN: __tunables_init
0x0001abce:  00069797          auipc                   a5,105                  # 0x83bce
0x0001abd2:  8fa7a783          lw                      a5,-1798(a5)
0x0001abd6:  ef89              bnez                    a5,26                   # 0x1abf0

----------------
IN: __tunables_init
0x0001abd8:  7139              addi                    sp,sp,-64
0x0001abda:  f822              sd                      s0,48(sp)
0x0001abdc:  e456              sd                      s5,8(sp)
0x0001abde:  fc06              sd                      ra,56(sp)
0x0001abe0:  0080              addi                    s0,sp,64
0x0001abe2:  8aaa              mv                      s5,a0
0x0001abe4:  e519              bnez                    a0,14                   # 0x1abf2

----------------
IN: __tunables_init
0x0001abf2:  f426              sd                      s1,40(sp)
0x0001abf4:  f04a              sd                      s2,32(sp)
0x0001abf6:  f9700493          addi                    s1,zero,-105
0x0001abfa:  00065917          auipc                   s2,101                  # 0x7fbfa
0x0001abfe:  19690913          addi                    s2,s2,406
0x0001ac02:  ec4e              sd                      s3,24(sp)
0x0001ac04:  e852              sd                      s4,16(sp)
0x0001ac06:  03d00993          addi                    s3,zero,61
0x0001ac0a:  00066a17          auipc                   s4,102                  # 0x80c0a
0x0001ac0e:  16fa0a13          addi                    s4,s4,367
0x0001ac12:  412484b3          sub                     s1,s1,s2
0x0001ac16:  000ab883          ld                      a7,0(s5)
0x0001ac1a:  0a088663          beqz                    a7,172                  # 0x1acc6

----------------
IN: __tunables_init
0x0001ac1e:  0008c703          lbu                     a4,0(a7)
0x0001ac22:  0aa1              addi                    s5,s5,8
0x0001ac24:  4781              mv                      a5,zero
0x0001ac26:  e719              bnez                    a4,14                   # 0x1ac34

----------------
IN: __tunables_init
0x0001ac34:  0785              addi                    a5,a5,1
0x0001ac36:  ff371ae3          bne                     a4,s3,-12               # 0x1ac2a

----------------
IN: __tunables_init
0x0001ac2a:  00f88733          add                     a4,a7,a5
0x0001ac2e:  00074703          lbu                     a4,0(a4)
0x0001ac32:  d375              beqz                    a4,-28                  # 0x1ac16

----------------
IN: __tunables_init
0x0001ac3a:  00f885b3          add                     a1,a7,a5
0x0001ac3e:  0003a717          auipc                   a4,58                   # 0x54c3e
0x0001ac42:  b9270713          addi                    a4,a4,-1134
0x0001ac46:  87c6              mv                      a5,a7
0x0001ac48:  04700613          addi                    a2,zero,71
0x0001ac4c:  a031              j                       12                      # 0x1ac58

----------------
IN: __tunables_init
0x0001ac58:  0007c683          lbu                     a3,0(a5)
0x0001ac5c:  0705              addi                    a4,a4,1
0x0001ac5e:  0785              addi                    a5,a5,1
0x0001ac60:  f6fd              bnez                    a3,-18                  # 0x1ac4e

----------------
IN: __tunables_init
0x0001ac4e:  00c69a63          bne                     a3,a2,20                # 0x1ac62

----------------
IN: __tunables_init
0x0001ac62:  00065817          auipc                   a6,101                  # 0x7fc62
0x0001ac66:  19780813          addi                    a6,a6,407
0x0001ac6a:  a029              j                       10                      # 0x1ac74

----------------
IN: __tunables_init
0x0001ac74:  fff84783          lbu                     a5,-1(a6)
0x0001ac78:  8742              mv                      a4,a6
0x0001ac7a:  fbed              bnez                    a5,-14                  # 0x1ac6c

----------------
IN: __tunables_init
0x0001ac7c:  00084783          lbu                     a5,0(a6)
0x0001ac80:  86c6              mv                      a3,a7
0x0001ac82:  d7ed              beqz                    a5,-22                  # 0x1ac6c

----------------
IN: __tunables_init
0x0001ac6c:  08080813          addi                    a6,a6,128
0x0001ac70:  fb0a03e3          beq                     s4,a6,-90               # 0x1ac16

----------------
IN: __tunables_init
0x0001ac84:  0006c603          lbu                     a2,0(a3)
0x0001ac88:  0705              addi                    a4,a4,1
0x0001ac8a:  0685              addi                    a3,a3,1
0x0001ac8c:  d265              beqz                    a2,-32                  # 0x1ac6c

----------------
IN: __tunables_init
0x0001ac8e:  fcf61fe3          bne                     a2,a5,-34               # 0x1ac6c

----------------
IN: __tunables_init
0x0001ac92:  00074783          lbu                     a5,0(a4)
0x0001ac96:  f7fd              bnez                    a5,-18                  # 0x1ac84

----------------
IN: __tunables_init
0x0001ac16:  000ab883          ld                      a7,0(s5)
0x0001ac1a:  0a088663          beqz                    a7,172                  # 0x1acc6

----------------
IN: __tunables_init
0x0001ac52:  00074603          lbu                     a2,0(a4)
0x0001ac56:  c249              beqz                    a2,130                  # 0x1acd8

----------------
IN: __tunables_init
0x0001acc6:  70e2              ld                      ra,56(sp)
0x0001acc8:  7442              ld                      s0,48(sp)
0x0001acca:  74a2              ld                      s1,40(sp)
0x0001accc:  7902              ld                      s2,32(sp)
0x0001acce:  69e2              ld                      s3,24(sp)
0x0001acd0:  6a42              ld                      s4,16(sp)
0x0001acd2:  6aa2              ld                      s5,8(sp)
0x0001acd4:  6121              addi                    sp,sp,64
0x0001acd6:  8082              ret                     

----------------
IN: __libc_start_main
0x000107b6:  0554f363          bleu                    s5,s1,70                # 0x107fc

----------------
IN: __libc_start_main
0x000107fc:  226000ef          jal                     ra,550                  # 0x10a22

----------------
IN: __libc_setup_tls
0x00010a22:  7175              addi                    sp,sp,-144
0x00010a24:  e122              sd                      s0,128(sp)
0x00010a26:  f46e              sd                      s11,40(sp)
0x00010a28:  e506              sd                      ra,136(sp)
0x00010a2a:  fca6              sd                      s1,120(sp)
0x00010a2c:  f8ca              sd                      s2,112(sp)
0x00010a2e:  f4ce              sd                      s3,104(sp)
0x00010a30:  f0d2              sd                      s4,96(sp)
0x00010a32:  ecd6              sd                      s5,88(sp)
0x00010a34:  e8da              sd                      s6,80(sp)
0x00010a36:  e4de              sd                      s7,72(sp)
0x00010a38:  e0e2              sd                      s8,64(sp)
0x00010a3a:  fc66              sd                      s9,56(sp)
0x00010a3c:  f86a              sd                      s10,48(sp)
0x00010a3e:  0900              addi                    s0,sp,144
0x00010a40:  00071797          auipc                   a5,113                  # 0x81a40
0x00010a44:  5a87b783          ld                      a5,1448(a5)
0x00010a48:  0007bd83          ld                      s11,0(a5)
0x00010a4c:  57f090ef          jal                     ra,40318                # 0x1a7ca

----------------
IN: __tls_pre_init_tp
0x0001a7ca:  1141              addi                    sp,sp,-16
0x0001a7cc:  e422              sd                      s0,8(sp)
0x0001a7ce:  0800              addi                    s0,sp,16
0x0001a7d0:  6422              ld                      s0,8(sp)
0x0001a7d2:  00067697          auipc                   a3,103                  # 0x817d2
0x0001a7d6:  7366b683          ld                      a3,1846(a3)
0x0001a7da:  00067717          auipc                   a4,103                  # 0x817da
0x0001a7de:  44e73703          ld                      a4,1102(a4)
0x0001a7e2:  00067797          auipc                   a5,103                  # 0x817e2
0x0001a7e6:  4de7b783          ld                      a5,1246(a5)
0x0001a7ea:  e694              sd                      a3,8(a3)
0x0001a7ec:  e294              sd                      a3,0(a3)
0x0001a7ee:  e718              sd                      a4,8(a4)
0x0001a7f0:  e318              sd                      a4,0(a4)
0x0001a7f2:  e79c              sd                      a5,8(a5)
0x0001a7f4:  e39c              sd                      a5,0(a5)
0x0001a7f6:  0141              addi                    sp,sp,16
0x0001a7f8:  8082              ret                     

----------------
IN: __libc_setup_tls
0x00010a50:  00071797          auipc                   a5,113                  # 0x81a50
0x00010a54:  4f07b783          ld                      a5,1264(a5)
0x00010a58:  6398              ld                      a4,0(a5)
0x00010a5a:  00071797          auipc                   a5,113                  # 0x81a5a
0x00010a5e:  3ce7b783          ld                      a5,974(a5)
0x00010a62:  639c              ld                      a5,0(a5)
0x00010a64:  00371693          slli                    a3,a4,3
0x00010a68:  8e99              sub                     a3,a3,a4
0x00010a6a:  068e              slli                    a3,a3,3
0x00010a6c:  96be              add                     a3,a3,a5
0x00010a6e:  14d7f663          bleu                    a3,a5,332               # 0x10bba

----------------
IN: __libc_setup_tls
0x00010a72:  461d              addi                    a2,zero,7
0x00010a74:  a029              j                       10                      # 0x10a7e

----------------
IN: __libc_setup_tls
0x00010a7e:  4398              lw                      a4,0(a5)
0x00010a80:  fec71be3          bne                     a4,a2,-10               # 0x10a76

----------------
IN: __libc_setup_tls
0x00010a76:  03878793          addi                    a5,a5,56
0x00010a7a:  14d7f063          bleu                    a3,a5,320               # 0x10bba

----------------
IN: __libc_setup_tls
0x00010a84:  000dba83          ld                      s5,0(s11)
0x00010a88:  6b90              ld                      a2,16(a5)
0x00010a8a:  0307bd03          ld                      s10,48(a5)
0x00010a8e:  02000713          addi                    a4,zero,32
0x00010a92:  0287bb03          ld                      s6,40(a5)
0x00010a96:  0207bb83          ld                      s7,32(a5)
0x00010a9a:  9ab2              add                     s5,s5,a2
0x00010a9c:  8a6a              mv                      s4,s10
0x00010a9e:  10ed6863          bgtu                    a4,s10,272              # 0x10bae

----------------
IN: __libc_setup_tls
0x00010bae:  02000a13          addi                    s4,zero,32
0x00010bb2:  89ea              mv                      s3,s10
0x00010bb4:  ee0d1ae3          bnez                    s10,-268                # 0x10aa8

----------------
IN: __libc_setup_tls
0x00010aa8:  fffa0793          addi                    a5,s4,-1
0x00010aac:  f8f43423          sd                      a5,-120(s0)
0x00010ab0:  4501              mv                      a0,zero
0x00010ab2:  414007b3          neg                     a5,s4
0x00010ab6:  f8f43023          sd                      a5,-128(s0)
0x00010aba:  74c090ef          jal                     ra,38732                # 0x1a206

----------------
IN: _dl_tls_static_surplus_init
0x0001a206:  7179              addi                    sp,sp,-48
0x0001a208:  f022              sd                      s0,32(sp)
0x0001a20a:  1800              addi                    s0,sp,48
0x0001a20c:  f406              sd                      ra,40(sp)
0x0001a20e:  ec26              sd                      s1,24(sp)
0x0001a210:  e84a              sd                      s2,16(sp)
0x0001a212:  fd840493          addi                    s1,s0,-40
0x0001a216:  85a6              mv                      a1,s1
0x0001a218:  4601              mv                      a2,zero
0x0001a21a:  892a              mv                      s2,a0
0x0001a21c:  4501              mv                      a0,zero
0x0001a21e:  3f5000ef          jal                     ra,3060                 # 0x1ae12

----------------
IN: __tunable_get_val
0x0001ae12:  1502              slli                    a0,a0,32
0x0001ae14:  1141              addi                    sp,sp,-16
0x0001ae16:  9101              srli                    a0,a0,32
0x0001ae18:  e422              sd                      s0,8(sp)
0x0001ae1a:  00065797          auipc                   a5,101                  # 0x7fe1a
0x0001ae1e:  f7678793          addi                    a5,a5,-138
0x0001ae22:  0800              addi                    s0,sp,16
0x0001ae24:  00751713          slli                    a4,a0,7
0x0001ae28:  00e786b3          add                     a3,a5,a4
0x0001ae2c:  0306a803          lw                      a6,48(a3)
0x0001ae30:  4889              addi                    a7,zero,2
0x0001ae32:  0308e863          bgtu                    a6,a7,48                # 0x1ae62

----------------
IN: __tunable_get_val
0x0001ae36:  6eb8              ld                      a4,88(a3)
0x0001ae38:  02080363          beqz                    a6,38                   # 0x1ae5e

----------------
IN: __tunable_get_val
0x0001ae3c:  e198              sd                      a4,0(a1)
0x0001ae3e:  051e              slli                    a0,a0,7
0x0001ae40:  00a78733          add                     a4,a5,a0
0x0001ae44:  06874703          lbu                     a4,104(a4)
0x0001ae48:  cb01              beqz                    a4,16                   # 0x1ae58

----------------
IN: __tunable_get_val
0x0001ae58:  6422              ld                      s0,8(sp)
0x0001ae5a:  0141              addi                    sp,sp,16
0x0001ae5c:  8082              ret                     

----------------
IN: _dl_tls_static_surplus_init
0x0001a222:  85a6              mv                      a1,s1
0x0001a224:  fd843483          ld                      s1,-40(s0)
0x0001a228:  4601              mv                      a2,zero
0x0001a22a:  4571              addi                    a0,zero,28
0x0001a22c:  3e7000ef          jal                     ra,3046                 # 0x1ae12

----------------
IN: _dl_tls_static_surplus_init
0x0001a230:  fd843683          ld                      a3,-40(s0)
0x0001a234:  4785              addi                    a5,zero,1
0x0001a236:  e091              bnez                    s1,4                    # 0x1a23a

----------------
IN: _dl_tls_static_surplus_init
0x0001a23a:  0017c613          xori                    a2,a5,1
0x0001a23e:  03266f63          bgtu                    s2,a2,62                # 0x1a27c

----------------
IN: _dl_tls_static_surplus_init
0x0001a242:  012787bb          addw                    a5,a5,s2
0x0001a246:  fff7871b          addiw                   a4,a5,-1
0x0001a24a:  9f3d              addw                    a4,a4,a5
0x0001a24c:  0037179b          slliw                   a5,a4,3
0x0001a250:  9fb9              addw                    a5,a5,a4
0x0001a252:  0047979b          slliw                   a5,a5,4
0x0001a256:  70a2              ld                      ra,40(sp)
0x0001a258:  7402              ld                      s0,32(sp)
0x0001a25a:  00068717          auipc                   a4,104                  # 0x8225a
0x0001a25e:  aa673703          ld                      a4,-1370(a4)
0x0001a262:  9fb5              addw                    a5,a5,a3
0x0001a264:  e314              sd                      a3,0(a4)
0x0001a266:  0907879b          addiw                   a5,a5,144
0x0001a26a:  00068717          auipc                   a4,104                  # 0x8226a
0x0001a26e:  c4e73703          ld                      a4,-946(a4)
0x0001a272:  e31c              sd                      a5,0(a4)
0x0001a274:  64e2              ld                      s1,24(sp)
0x0001a276:  6942              ld                      s2,16(sp)
0x0001a278:  6145              addi                    sp,sp,48
0x0001a27a:  8082              ret                     

----------------
IN: __libc_setup_tls
0x00010abe:  140d0563          beqz                    s10,330                 # 0x10c08

----------------
IN: __libc_setup_tls
0x00010ac2:  fffd0913          addi                    s2,s10,-1
0x00010ac6:  03a95833          divu                    a6,s2,s10
0x00010aca:  995a              add                     s2,s2,s6
0x00010acc:  03380c33          mul                     s8,a6,s3
0x00010ad0:  f7843c23          sd                      s8,-136(s0)
0x00010ad4:  84018c93          addi                    s9,gp,-1984
0x00010ad8:  000cb503          ld                      a0,0(s9)
0x00010adc:  76050513          addi                    a0,a0,1888
0x00010ae0:  955a              add                     a0,a0,s6
0x00010ae2:  9552              add                     a0,a0,s4
0x00010ae4:  9562              add                     a0,a0,s8
0x00010ae6:  3840a0ef          jal                     ra,41860                # 0x1ae6a

----------------
IN: _dl_early_allocate
0x0001ae6a:  1101              addi                    sp,sp,-32
0x0001ae6c:  e822              sd                      s0,16(sp)
0x0001ae6e:  e426              sd                      s1,8(sp)
0x0001ae70:  ec06              sd                      ra,24(sp)
0x0001ae72:  1000              addi                    s0,sp,32
0x0001ae74:  0006d797          auipc                   a5,109                  # 0x87e74
0x0001ae78:  7947b783          ld                      a5,1940(a5)
0x0001ae7c:  84aa              mv                      s1,a0
0x0001ae7e:  cf91              beqz                    a5,28                   # 0x1ae9a

----------------
IN: _dl_early_allocate
0x0001ae9a:  0d600893          addi                    a7,zero,214
0x0001ae9e:  4501              mv                      a0,zero
0x0001aea0:  00000073          ecall                   

----------------
IN: _dl_early_allocate
0x0001aea4:  87aa              mv                      a5,a0
0x0001aea6:  9526              add                     a0,a0,s1
0x0001aea8:  00000073          ecall                   

----------------
IN: _dl_early_allocate
0x0001aeac:  fea790e3          bne                     a5,a0,-32               # 0x1ae8c

----------------
IN: _dl_early_allocate
0x0001ae8c:  c395              beqz                    a5,36                   # 0x1aeb0

----------------
IN: _dl_early_allocate
0x0001ae8e:  60e2              ld                      ra,24(sp)
0x0001ae90:  6442              ld                      s0,16(sp)
0x0001ae92:  64a2              ld                      s1,8(sp)
0x0001ae94:  853e              mv                      a0,a5
0x0001ae96:  6105              addi                    sp,sp,32
0x0001ae98:  8082              ret                     

----------------
IN: __libc_setup_tls
0x00010aea:  84aa              mv                      s1,a0
0x00010aec:  0e050c63          beqz                    a0,248                  # 0x10be4

----------------
IN: __libc_setup_tls
0x00010af0:  f8843783          ld                      a5,-120(s0)
0x00010af4:  76048493          addi                    s1,s1,1888
0x00010af8:  865e              mv                      a2,s7
0x00010afa:  94be              add                     s1,s1,a5
0x00010afc:  f8043783          ld                      a5,-128(s0)
0x00010b00:  85d6              mv                      a1,s5
0x00010b02:  8cfd              and                     s1,s1,a5
0x00010b04:  f7843783          ld                      a5,-136(s0)
0x00010b08:  01848533          add                     a0,s1,s8
0x00010b0c:  02acb423          sd                      a0,40(s9)
0x00010b10:  44fdb823          sd                      a5,1104(s11)
0x00010b14:  03e00793          addi                    a5,zero,62
0x00010b18:  00fcb423          sd                      a5,8(s9)
0x00010b1c:  8601b823          sd                      zero,-1936(gp)
0x00010b20:  287070ef          jal                     ra,31366                # 0x185a6

----------------
IN: memcpy
0x000185a6:  7179              addi                    sp,sp,-48
0x000185a8:  f022              sd                      s0,32(sp)
0x000185aa:  ec26              sd                      s1,24(sp)
0x000185ac:  e44e              sd                      s3,8(sp)
0x000185ae:  f406              sd                      ra,40(sp)
0x000185b0:  1800              addi                    s0,sp,48
0x000185b2:  47bd              addi                    a5,zero,15
0x000185b4:  89aa              mv                      s3,a0
0x000185b6:  872a              mv                      a4,a0
0x000185b8:  84ae              mv                      s1,a1
0x000185ba:  04c7f863          bleu                    a2,a5,80                # 0x1860a

----------------
IN: memcpy
0x000185be:  40a00533          neg                     a0,a0
0x000185c2:  e84a              sd                      s2,16(sp)
0x000185c4:  891d              andi                    a0,a0,7
0x000185c6:  e052              sd                      s4,0(sp)
0x000185c8:  40a60933          sub                     s2,a2,a0
0x000185cc:  c925              beqz                    a0,112                  # 0x1863c

----------------
IN: memcpy
0x0001863c:  8a4e              mv                      s4,s3
0x0001863e:  b76d              j                       -86                     # 0x185e8

----------------
IN: memcpy
0x000185e8:  0074f793          andi                    a5,s1,7
0x000185ec:  00395613          srli                    a2,s2,3
0x000185f0:  85a6              mv                      a1,s1
0x000185f2:  8552              mv                      a0,s4
0x000185f4:  e3a9              bnez                    a5,66                   # 0x18636

----------------
IN: memcpy
0x000185f6:  4d2000ef          jal                     ra,1234                 # 0x18ac8

----------------
IN: _wordcopy_fwd_aligned
0x00018ac8:  1141              addi                    sp,sp,-16
0x00018aca:  00767793          andi                    a5,a2,7
0x00018ace:  e422              sd                      s0,8(sp)
0x00018ad0:  00041717          auipc                   a4,65                   # 0x59ad0
0x00018ad4:  a0470713          addi                    a4,a4,-1532
0x00018ad8:  0800              addi                    s0,sp,16
0x00018ada:  078a              slli                    a5,a5,2
0x00018adc:  97ba              add                     a5,a5,a4
0x00018ade:  439c              lw                      a5,0(a5)
0x00018ae0:  97ba              add                     a5,a5,a4
0x00018ae2:  8782              jr                      a5

----------------
IN: _wordcopy_fwd_aligned
0x00018b6e:  6198              ld                      a4,0(a1)
0x00018b70:  fd050793          addi                    a5,a0,-48
0x00018b74:  fd858593          addi                    a1,a1,-40
0x00018b78:  0615              addi                    a2,a2,5
0x00018b7a:  bf71              j                       -100                    # 0x18b16

----------------
IN: _wordcopy_fwd_aligned
0x00018b16:  0305b803          ld                      a6,48(a1)
0x00018b1a:  03878693          addi                    a3,a5,56
0x00018b1e:  e118              sd                      a4,0(a0)
0x00018b20:  7d98              ld                      a4,56(a1)
0x00018b22:  04078793          addi                    a5,a5,64
0x00018b26:  0106b023          sd                      a6,0(a3)
0x00018b2a:  1661              addi                    a2,a2,-8
0x00018b2c:  853e              mv                      a0,a5
0x00018b2e:  04058593          addi                    a1,a1,64
0x00018b32:  ea11              bnez                    a2,20                   # 0x18b46

----------------
IN: _wordcopy_fwd_aligned
0x00018b34:  e118              sd                      a4,0(a0)
0x00018b36:  6422              ld                      s0,8(sp)
0x00018b38:  0141              addi                    sp,sp,16
0x00018b3a:  8082              ret                     

----------------
IN: memcpy
0x000185fa:  ff897713          andi                    a4,s2,-8
0x000185fe:  94ba              add                     s1,s1,a4
0x00018600:  00797613          andi                    a2,s2,7
0x00018604:  9752              add                     a4,a4,s4
0x00018606:  6942              ld                      s2,16(sp)
0x00018608:  6a02              ld                      s4,0(sp)
0x0001860a:  177d              addi                    a4,a4,-1
0x0001860c:  87a6              mv                      a5,s1
0x0001860e:  009605b3          add                     a1,a2,s1
0x00018612:  8f05              sub                     a4,a4,s1
0x00018614:  ca11              beqz                    a2,20                   # 0x18628

----------------
IN: memcpy
0x00018628:  70a2              ld                      ra,40(sp)
0x0001862a:  7402              ld                      s0,32(sp)
0x0001862c:  64e2              ld                      s1,24(sp)
0x0001862e:  854e              mv                      a0,s3
0x00018630:  69a2              ld                      s3,8(sp)
0x00018632:  6145              addi                    sp,sp,48
0x00018634:  8082              ret                     

----------------
IN: __libc_setup_tls
0x00010b24:  85818793          addi                    a5,gp,-1960
0x00010b28:  fef4b823          sd                      a5,-16(s1)
0x00010b2c:  8226              mv                      tp,s1
0x00010b2e:  4cd090ef          jal                     ra,40140                # 0x1a7fa

----------------
IN: __tls_init_tp
0x0001a7fa:  7179              addi                    sp,sp,-48
0x0001a7fc:  f022              sd                      s0,32(sp)
0x0001a7fe:  ec26              sd                      s1,24(sp)
0x0001a800:  f406              sd                      ra,40(sp)
0x0001a802:  1800              addi                    s0,sp,48
0x0001a804:  00067797          auipc                   a5,103                  # 0x81804
0x0001a808:  4247b783          ld                      a5,1060(a5)
0x0001a80c:  6394              ld                      a3,0(a5)
0x0001a80e:  96020713          addi                    a4,tp,-1696
0x0001a812:  96f23423          sd                      a5,-1688(tp)
0x0001a816:  96d23023          sd                      a3,-1696(tp)
0x0001a81a:  e698              sd                      a4,8(a3)
0x0001a81c:  8492              mv                      s1,tp
0x0001a81e:  0330000f          fence                   rw,rw
0x0001a822:  06000893          addi                    a7,zero,96
0x0001a826:  e398              sd                      a4,0(a5)
0x0001a828:  97020513          addi                    a0,tp,-1680
0x0001a82c:  00000073          ecall                   

----------------
IN: __tls_init_tp
0x0001a830:  0006e717          auipc                   a4,110                  # 0x88830
0x0001a834:  e1070713          addi                    a4,a4,-496
0x0001a838:  00074603          lbu                     a2,0(a4)
0x0001a83c:  98020793          addi                    a5,tp,-1664
0x0001a840:  9b020593          addi                    a1,tp,-1616
0x0001a844:  4685              addi                    a3,zero,1
0x0001a846:  cac208a3          sb                      a2,-847(tp)
0x0001a84a:  5601              addi                    a2,zero,-32
0x0001a84c:  96a22823          sw                      a0,-1680(tp)
0x0001a850:  bab23823          sd                      a1,-1104(tp)
0x0001a854:  cad20923          sb                      a3,-846(tp)
0x0001a858:  96f23c23          sd                      a5,-1672(tp)
0x0001a85c:  98f23023          sd                      a5,-1664(tp)
0x0001a860:  98c23423          sd                      a2,-1656(tp)
0x0001a864:  06300893          addi                    a7,zero,99
0x0001a868:  853e              mv                      a0,a5
0x0001a86a:  45e1              addi                    a1,zero,24
0x0001a86c:  00000073          ecall                   

----------------
IN: __tls_init_tp
0x0001a870:  77fd              lui                     a5,-1
0x0001a872:  2501              sext.w                  a0,a0
0x0001a874:  00a7e463          bgtu                    a0,a5,8                 # 0x1a87c

----------------
IN: __tls_init_tp
0x0001a87c:  fdc40593          addi                    a1,s0,-36
0x0001a880:  4601              mv                      a2,zero
0x0001a882:  4511              addi                    a0,zero,4
0x0001a884:  58e000ef          jal                     ra,1422                 # 0x1ae12

----------------
IN: __tunable_get_val
0x0001ae5e:  c198              sw                      a4,0(a1)
0x0001ae60:  bff9              j                       -34                     # 0x1ae3e

----------------
IN: __tunable_get_val
0x0001ae3e:  051e              slli                    a0,a0,7
0x0001ae40:  00a78733          add                     a4,a5,a0
0x0001ae44:  06874703          lbu                     a4,104(a4)
0x0001ae48:  cb01              beqz                    a4,16                   # 0x1ae58

----------------
IN: __tls_init_tp
0x0001a888:  00067797          auipc                   a5,103                  # 0x81888
0x0001a88c:  3807b783          ld                      a5,896(a5)
0x0001a890:  639c              ld                      a5,0(a5)
0x0001a892:  70a2              ld                      ra,40(sp)
0x0001a894:  7402              ld                      s0,32(sp)
0x0001a896:  5779              addi                    a4,zero,-2
0x0001a898:  fce4a223          sw                      a4,-60(s1)
0x0001a89c:  d2f4bc23          sd                      a5,-712(s1)
0x0001a8a0:  64e2              ld                      s1,24(sp)
0x0001a8a2:  6145              addi                    sp,sp,48
0x0001a8a4:  8082              ret                     

----------------
IN: __libc_setup_tls
0x00010b32:  033979b3          remu                    s3,s2,s3
0x00010b36:  000cb783          ld                      a5,0(s9)
0x00010b3a:  60aa              ld                      ra,136(sp)
0x00010b3c:  640a              ld                      s0,128(sp)
0x00010b3e:  07fd              addi                    a5,a5,31
0x00010b40:  04000693          addi                    a3,zero,64
0x00010b44:  00074617          auipc                   a2,116                  # 0x84b44
0x00010b48:  d9460613          addi                    a2,a2,-620
0x00010b4c:  4585              addi                    a1,zero,1
0x00010b4e:  40dcb423          sd                      a3,1032(s9)
0x00010b52:  c4818693          addi                    a3,gp,-952
0x00010b56:  45adb023          sd                      s10,1088(s11)
0x00010b5a:  436dbc23          sd                      s6,1080(s11)
0x00010b5e:  435db423          sd                      s5,1064(s11)
0x00010b62:  437db823          sd                      s7,1072(s11)
0x00010b66:  43bcb823          sd                      s11,1072(s9)
0x00010b6a:  44bdbc23          sd                      a1,1112(s11)
0x00010b6e:  83463c23          sd                      s4,-1992(a2)
0x00010b72:  80b63c23          sd                      a1,-2024(a2)
0x00010b76:  82d63023          sd                      a3,-2016(a2)
0x00010b7a:  84b63023          sd                      a1,-1984(a2)
0x00010b7e:  74e6              ld                      s1,120(sp)
0x00010b80:  7a06              ld                      s4,96(sp)
0x00010b82:  6ae6              ld                      s5,88(sp)
0x00010b84:  6b46              ld                      s6,80(sp)
0x00010b86:  6ba6              ld                      s7,72(sp)
0x00010b88:  7ce2              ld                      s9,56(sp)
0x00010b8a:  7d42              ld                      s10,48(sp)
0x00010b8c:  7da2              ld                      s11,40(sp)
0x00010b8e:  41390933          sub                     s2,s2,s3
0x00010b92:  9962              add                     s2,s2,s8
0x00010b94:  97ca              add                     a5,a5,s2
0x00010b96:  9b81              andi                    a5,a5,-32
0x00010b98:  83263823          sd                      s2,-2000(a2)
0x00010b9c:  82f63423          sd                      a5,-2008(a2)
0x00010ba0:  7946              ld                      s2,112(sp)
0x00010ba2:  79a6              ld                      s3,104(sp)
0x00010ba4:  6c06              ld                      s8,64(sp)
0x00010ba6:  6149              addi                    sp,sp,144
0x00010ba8:  8082              ret                     

----------------
IN: __libc_start_main
0x00010800:  00070a17          auipc                   s4,112                  # 0x80800
0x00010804:  510a0a13          addi                    s4,s4,1296
0x00010808:  000a3783          ld                      a5,0(s4)
0x0001080c:  0006f497          auipc                   s1,111                  # 0x7f80c
0x00010810:  56448493          addi                    s1,s1,1380
0x00010814:  00071817          auipc                   a6,113                  # 0x81814
0x00010818:  59c83803          ld                      a6,1436(a6)
0x0001081c:  0017c883          lbu                     a7,1(a5)
0x00010820:  0007c703          lbu                     a4,0(a5)
0x00010824:  0027c503          lbu                     a0,2(a5)
0x00010828:  0037c583          lbu                     a1,3(a5)
0x0001082c:  0047c603          lbu                     a2,4(a5)
0x00010830:  08a2              slli                    a7,a7,8
0x00010832:  0057c683          lbu                     a3,5(a5)
0x00010836:  00e8e8b3          or                      a7,a7,a4
0x0001083a:  0542              slli                    a0,a0,16
0x0001083c:  0067c703          lbu                     a4,6(a5)
0x00010840:  01156533          or                      a0,a0,a7
0x00010844:  05e2              slli                    a1,a1,24
0x00010846:  0077c783          lbu                     a5,7(a5)
0x0001084a:  8dc9              or                      a1,a1,a0
0x0001084c:  1602              slli                    a2,a2,32
0x0001084e:  8e4d              or                      a2,a2,a1
0x00010850:  16a2              slli                    a3,a3,40
0x00010852:  8ed1              or                      a3,a3,a2
0x00010854:  1742              slli                    a4,a4,48
0x00010856:  8f55              or                      a4,a4,a3
0x00010858:  17e2              slli                    a5,a5,56
0x0001085a:  8fd9              or                      a5,a5,a4
0x0001085c:  f007f793          andi                    a5,a5,-256
0x00010860:  e09c              sd                      a5,0(s1)
0x00010862:  00080363          beqz                    a6,6                    # 0x10868

----------------
IN: __libc_start_main
0x00010868:  000a3783          ld                      a5,0(s4)
0x0001086c:  0087c303          lbu                     t1,8(a5)
0x00010870:  0097c883          lbu                     a7,9(a5)
0x00010874:  00a7c803          lbu                     a6,10(a5)
0x00010878:  00b7c503          lbu                     a0,11(a5)
0x0001087c:  00c7c583          lbu                     a1,12(a5)
0x00010880:  00d7c603          lbu                     a2,13(a5)
0x00010884:  00e7c683          lbu                     a3,14(a5)
0x00010888:  00f7c703          lbu                     a4,15(a5)
0x0001088c:  f8640423          sb                      t1,-120(s0)
0x00010890:  f91404a3          sb                      a7,-119(s0)
0x00010894:  f9040523          sb                      a6,-118(s0)
0x00010898:  f8a405a3          sb                      a0,-117(s0)
0x0001089c:  f8b40623          sb                      a1,-116(s0)
0x000108a0:  f8c406a3          sb                      a2,-115(s0)
0x000108a4:  f8d40723          sb                      a3,-114(s0)
0x000108a8:  f8e407a3          sb                      a4,-113(s0)
0x000108ac:  f8843783          ld                      a5,-120(s0)
0x000108b0:  e49c              sd                      a5,8(s1)
0x000108b2:  000b8763          beqz                    s7,14                   # 0x108c0

----------------
IN: __libc_start_main
0x000108c0:  4505              addi                    a0,zero,1
0x000108c2:  6710a0ef          jal                     ra,44656                # 0x1b732

----------------
IN: __libc_early_init
0x0001b732:  7139              addi                    sp,sp,-64
0x0001b734:  fc06              sd                      ra,56(sp)
0x0001b736:  f822              sd                      s0,48(sp)
0x0001b738:  f426              sd                      s1,40(sp)
0x0001b73a:  0080              addi                    s0,sp,64
0x0001b73c:  f04a              sd                      s2,32(sp)
0x0001b73e:  00066497          auipc                   s1,102                  # 0x8173e
0x0001b742:  4d24b483          ld                      s1,1234(s1)
0x0001b746:  609c              ld                      a5,0(s1)
0x0001b748:  fcf43c23          sd                      a5,-40(s0)
0x0001b74c:  4781              mv                      a5,zero
0x0001b74e:  892a              mv                      s2,a0
0x0001b750:  198000ef          jal                     ra,408                  # 0x1b8e8

----------------
IN: __ctype_init
0x0001b8e8:  00066797          auipc                   a5,102                  # 0x818e8
0x0001b8ec:  4b87b783          ld                      a5,1208(a5)
0x0001b8f0:  1141              addi                    sp,sp,-16
0x0001b8f2:  e422              sd                      s0,8(sp)
0x0001b8f4:  0800              addi                    s0,sp,16
0x0001b8f6:  9792              add                     a5,a5,tp
0x0001b8f8:  6398              ld                      a4,0(a5)
0x0001b8fa:  00066797          auipc                   a5,102                  # 0x818fa
0x0001b8fe:  2c67b783          ld                      a5,710(a5)
0x0001b902:  6422              ld                      s0,8(sp)
0x0001b904:  6318              ld                      a4,0(a4)
0x0001b906:  9792              add                     a5,a5,tp
0x0001b908:  7f10              ld                      a2,56(a4)
0x0001b90a:  6334              ld                      a3,64(a4)
0x0001b90c:  6b38              ld                      a4,80(a4)
0x0001b90e:  10060613          addi                    a2,a2,256
0x0001b912:  20068693          addi                    a3,a3,512
0x0001b916:  20070713          addi                    a4,a4,512
0x0001b91a:  e390              sd                      a2,0(a5)
0x0001b91c:  e794              sd                      a3,8(a5)
0x0001b91e:  eb98              sd                      a4,16(a5)
0x0001b920:  0141              addi                    sp,sp,16
0x0001b922:  8082              ret                     

----------------
IN: __libc_early_init
0x0001b754:  fc840593          addi                    a1,s0,-56
0x0001b758:  450d              addi                    a0,zero,3
0x0001b75a:  00068797          auipc                   a5,104                  # 0x8375a
0x0001b75e:  d9278123          sb                      s2,-638(a5)
0x0001b762:  5820b0ef          jal                     ra,46466                # 0x26ce4

----------------
IN: __GI___getrlimit
0x00026ce4:  1141              addi                    sp,sp,-16
0x00026ce6:  87aa              mv                      a5,a0
0x00026ce8:  e422              sd                      s0,8(sp)
0x00026cea:  86ae              mv                      a3,a1
0x00026cec:  0800              addi                    s0,sp,16
0x00026cee:  02079593          slli                    a1,a5,32
0x00026cf2:  10500893          addi                    a7,zero,261
0x00026cf6:  4501              mv                      a0,zero
0x00026cf8:  9181              srli                    a1,a1,32
0x00026cfa:  4601              mv                      a2,zero
0x00026cfc:  00000073          ecall                   

----------------
IN: __GI___getrlimit
0x00026d00:  77fd              lui                     a5,-1
0x00026d02:  00a7e663          bgtu                    a0,a5,12                # 0x26d0e

----------------
IN: __GI___getrlimit
0x00026d06:  6422              ld                      s0,8(sp)
0x00026d08:  2501              sext.w                  a0,a0
0x00026d0a:  0141              addi                    sp,sp,16
0x00026d0c:  8082              ret                     

----------------
IN: __libc_early_init
0x0001b766:  002005b7          lui                     a1,512
0x0001b76a:  e911              bnez                    a0,20                   # 0x1b77e

----------------
IN: __libc_early_init
0x0001b76c:  fc843783          ld                      a5,-56(s0)
0x0001b770:  577d              addi                    a4,zero,-1
0x0001b772:  00e78663          beq                     a5,a4,12                # 0x1b77e

----------------
IN: __libc_early_init
0x0001b776:  85be              mv                      a1,a5
0x0001b778:  6791              lui                     a5,4
0x0001b77a:  06f5ea63          bgtu                    a5,a1,116               # 0x1b7ee

----------------
IN: __libc_early_init
0x0001b77e:  00066797          auipc                   a5,102                  # 0x8177e
0x0001b782:  59a7b783          ld                      a5,1434(a5)
0x0001b786:  6398              ld                      a4,0(a5)
0x0001b788:  00066797          auipc                   a5,102                  # 0x81788
0x0001b78c:  5e87b783          ld                      a5,1512(a5)
0x0001b790:  639c              ld                      a5,0(a5)
0x0001b792:  00067697          auipc                   a3,103                  # 0x82792
0x0001b796:  82e6b683          ld                      a3,-2002(a3)
0x0001b79a:  6294              ld                      a3,0(a3)
0x0001b79c:  97ba              add                     a5,a5,a4
0x0001b79e:  17fd              addi                    a5,a5,-1
0x0001b7a0:  02e7f633          remu                    a2,a5,a4
0x0001b7a4:  6705              lui                     a4,1
0x0001b7a6:  80070713          addi                    a4,a4,-2048
0x0001b7aa:  9736              add                     a4,a4,a3
0x0001b7ac:  8f91              sub                     a5,a5,a2
0x0001b7ae:  97ba              add                     a5,a5,a4
0x0001b7b0:  00b7f363          bleu                    a1,a5,6                 # 0x1b7b6

----------------
IN: __libc_early_init
0x0001b7b4:  87ae              mv                      a5,a1
0x0001b7b6:  fff68713          addi                    a4,a3,-1
0x0001b7ba:  97ba              add                     a5,a5,a4
0x0001b7bc:  40d00733          neg                     a4,a3
0x0001b7c0:  8ff9              and                     a5,a5,a4
0x0001b7c2:  0006d717          auipc                   a4,109                  # 0x887c2
0x0001b7c6:  fee70713          addi                    a4,a4,-18
0x0001b7ca:  fcf43423          sd                      a5,-56(s0)
0x0001b7ce:  f31c              sd                      a5,32(a4)
0x0001b7d0:  eb14              sd                      a3,16(a4)
0x0001b7d2:  150080ef          jal                     ra,33104                # 0x23922

----------------
IN: __pthread_tunables_init
0x00023922:  7179              addi                    sp,sp,-48
0x00023924:  f406              sd                      ra,40(sp)
0x00023926:  f022              sd                      s0,32(sp)
0x00023928:  ec26              sd                      s1,24(sp)
0x0002392a:  1800              addi                    s0,sp,48
0x0002392c:  e84a              sd                      s2,16(sp)
0x0002392e:  fd040493          addi                    s1,s0,-48
0x00023932:  0005e917          auipc                   s2,94                   # 0x81932
0x00023936:  2de93903          ld                      s2,734(s2)
0x0002393a:  00093783          ld                      a5,0(s2)
0x0002393e:  fcf43c23          sd                      a5,-40(s0)
0x00023942:  4781              mv                      a5,zero
0x00023944:  00000617          auipc                   a2,0                    # 0x23944
0x00023948:  f9a60613          addi                    a2,a2,-102
0x0002394c:  85a6              mv                      a1,s1
0x0002394e:  4565              addi                    a0,zero,25
0x00023950:  cc2f70ef          jal                     ra,-35646               # 0x1ae12

----------------
IN: __pthread_tunables_init
0x00023954:  00000617          auipc                   a2,0                    # 0x23954
0x00023958:  fa060613          addi                    a2,a2,-96
0x0002395c:  85a6              mv                      a1,s1
0x0002395e:  4535              addi                    a0,zero,13
0x00023960:  cb2f70ef          jal                     ra,-35662               # 0x1ae12

----------------
IN: __pthread_tunables_init
0x00023964:  00000617          auipc                   a2,0                    # 0x23964
0x00023968:  fa660613          addi                    a2,a2,-90
0x0002396c:  85a6              mv                      a1,s1
0x0002396e:  454d              addi                    a0,zero,19
0x00023970:  ca2f70ef          jal                     ra,-35678               # 0x1ae12

----------------
IN: __pthread_tunables_init
0x00023974:  fd843703          ld                      a4,-40(s0)
0x00023978:  00093783          ld                      a5,0(s2)
0x0002397c:  8fb9              xor                     a5,a5,a4
0x0002397e:  4701              mv                      a4,zero
0x00023980:  e799              bnez                    a5,14                   # 0x2398e

----------------
IN: __pthread_tunables_init
0x00023982:  70a2              ld                      ra,40(sp)
0x00023984:  7402              ld                      s0,32(sp)
0x00023986:  64e2              ld                      s1,24(sp)
0x00023988:  6942              ld                      s2,16(sp)
0x0002398a:  6145              addi                    sp,sp,48
0x0002398c:  8082              ret                     

----------------
IN: __libc_early_init
0x0001b7d6:  fd843703          ld                      a4,-40(s0)
0x0001b7da:  609c              ld                      a5,0(s1)
0x0001b7dc:  8fb9              xor                     a5,a5,a4
0x0001b7de:  4701              mv                      a4,zero
0x0001b7e0:  eb89              bnez                    a5,18                   # 0x1b7f2

----------------
IN: __libc_early_init
0x0001b7e2:  70e2              ld                      ra,56(sp)
0x0001b7e4:  7442              ld                      s0,48(sp)
0x0001b7e6:  74a2              ld                      s1,40(sp)
0x0001b7e8:  7902              ld                      s2,32(sp)
0x0001b7ea:  6121              addi                    sp,sp,64
0x0001b7ec:  8082              ret                     

----------------
IN: __libc_start_main
0x000108c6:  000b3603          ld                      a2,0(s6)
0x000108ca:  85ce              mv                      a1,s3
0x000108cc:  854a              mv                      a0,s2
0x000108ce:  7290a0ef          jal                     ra,44840                # 0x1b7f6

----------------
IN: __libc_init_first
0x0001b7f6:  7179              addi                    sp,sp,-48
0x0001b7f8:  f022              sd                      s0,32(sp)
0x0001b7fa:  ec26              sd                      s1,24(sp)
0x0001b7fc:  e84a              sd                      s2,16(sp)
0x0001b7fe:  e44e              sd                      s3,8(sp)
0x0001b800:  f406              sd                      ra,40(sp)
0x0001b802:  1800              addi                    s0,sp,48
0x0001b804:  0006d797          auipc                   a5,109                  # 0x88804
0x0001b808:  f5c78793          addi                    a5,a5,-164
0x0001b80c:  c388              sw                      a0,0(a5)
0x0001b80e:  e78c              sd                      a1,8(a5)
0x0001b810:  00066797          auipc                   a5,102                  # 0x81810
0x0001b814:  5107b783          ld                      a5,1296(a5)
0x0001b818:  84aa              mv                      s1,a0
0x0001b81a:  892e              mv                      s2,a1
0x0001b81c:  89b2              mv                      s3,a2
0x0001b81e:  e390              sd                      a2,0(a5)
0x0001b820:  81bff0ef          jal                     ra,-2022                # 0x1b03a

----------------
IN: _dl_non_dynamic_init
0x0001b03a:  7159              addi                    sp,sp,-112
0x0001b03c:  f0a2              sd                      s0,96(sp)
0x0001b03e:  e8ca              sd                      s2,80(sp)
0x0001b040:  e4ce              sd                      s3,72(sp)
0x0001b042:  f85a              sd                      s6,48(sp)
0x0001b044:  f486              sd                      ra,104(sp)
0x0001b046:  eca6              sd                      s1,88(sp)
0x0001b048:  f45e              sd                      s7,40(sp)
0x0001b04a:  1880              addi                    s0,sp,112
0x0001b04c:  166110ef          jal                     ra,69990                # 0x2c1b2

----------------
IN: _dl_get_origin
0x0002c1b2:  7179              addi                    sp,sp,-48
0x0002c1b4:  e84a              sd                      s2,16(sp)
0x0002c1b6:  797d              lui                     s2,-1
0x0002c1b8:  f022              sd                      s0,32(sp)
0x0002c1ba:  fd090793          addi                    a5,s2,-48
0x0002c1be:  1800              addi                    s0,sp,48
0x0002c1c0:  f406              sd                      ra,40(sp)
0x0002c1c2:  ec26              sd                      s1,24(sp)
0x0002c1c4:  e44e              sd                      s3,8(sp)
0x0002c1c6:  72fd              lui                     t0,-1
0x0002c1c8:  00878933          add                     s2,a5,s0
0x0002c1cc:  04e00893          addi                    a7,zero,78
0x0002c1d0:  9116              add                     sp,sp,t0
0x0002c1d2:  f9c00513          addi                    a0,zero,-100
0x0002c1d6:  0002a597          auipc                   a1,42                   # 0x561d6
0x0002c1da:  d3258593          addi                    a1,a1,-718
0x0002c1de:  864a              mv                      a2,s2
0x0002c1e0:  6685              lui                     a3,1
0x0002c1e2:  00000073          ecall                   

----------------
IN: _dl_get_origin
0x0002c1e6:  2501              sext.w                  a0,a0
0x0002c1e8:  04a05563          blez                    a0,74                   # 0x2c232

----------------
IN: _dl_get_origin
0x0002c1ec:  00094783          lbu                     a5,0(s2)
0x0002c1f0:  05b00713          addi                    a4,zero,91
0x0002c1f4:  02e78f63          beq                     a5,a4,62                # 0x2c232

----------------
IN: _dl_get_origin
0x0002c1f8:  02f00613          addi                    a2,zero,47
0x0002c1fc:  4705              addi                    a4,zero,1
0x0002c1fe:  02f00693          addi                    a3,zero,47
0x0002c202:  00c78a63          beq                     a5,a2,20                # 0x2c216

----------------
IN: _dl_get_origin
0x0002c216:  0005049b          sext.w                  s1,a0
0x0002c21a:  fee497e3          bne                     s1,a4,-18               # 0x2c208

----------------
IN: _dl_get_origin
0x0002c208:  157d              addi                    a0,a0,-1
0x0002c20a:  00a907b3          add                     a5,s2,a0
0x0002c20e:  0007c783          lbu                     a5,0(a5)
0x0002c212:  08d78363          beq                     a5,a3,134               # 0x2c298

----------------
IN: _dl_get_origin
0x0002c298:  0014851b          addiw                   a0,s1,1
0x0002c29c:  b75ea0ef          jal                     ra,-87180               # 0x16e10

----------------
IN: __malloc
0x00016e10:  7179              addi                    sp,sp,-48
0x00016e12:  f022              sd                      s0,32(sp)
0x00016e14:  e44e              sd                      s3,8(sp)
0x00016e16:  f406              sd                      ra,40(sp)
0x00016e18:  ec26              sd                      s1,24(sp)
0x00016e1a:  1800              addi                    s0,sp,48
0x00016e1c:  00071797          auipc                   a5,113                  # 0x87e1c
0x00016e20:  7a17c783          lbu                     a5,1953(a5)
0x00016e24:  89aa              mv                      s3,a0
0x00016e26:  c3e1              beqz                    a5,192                  # 0x16ee6

----------------
IN: __malloc
0x00016ee6:  97efd0ef          jal                     ra,-11906               # 0x14064

----------------
IN: ptmalloc_init.part.0
0x00014064:  715d              addi                    sp,sp,-80
0x00014066:  e0a2              sd                      s0,64(sp)
0x00014068:  f44e              sd                      s3,40(sp)
0x0001406a:  f052              sd                      s4,32(sp)
0x0001406c:  e486              sd                      ra,72(sp)
0x0001406e:  fc26              sd                      s1,56(sp)
0x00014070:  0880              addi                    s0,sp,80
0x00014072:  0006ea17          auipc                   s4,110                  # 0x82072
0x00014076:  b9ea3a03          ld                      s4,-1122(s4)
0x0001407a:  000a3783          ld                      a5,0(s4)
0x0001407e:  fcf43423          sd                      a5,-56(s0)
0x00014082:  4781              mv                      a5,zero
0x00014084:  00074997          auipc                   s3,116                  # 0x88084
0x00014088:  53498993          addi                    s3,s3,1332
0x0001408c:  4785              addi                    a5,zero,1
0x0001408e:  00f982a3          sb                      a5,5(s3)
0x00014092:  11600893          addi                    a7,zero,278
0x00014096:  00074517          auipc                   a0,116                  # 0x88096
0x0001409a:  52a50513          addi                    a0,a0,1322
0x0001409e:  45a1              addi                    a1,zero,8
0x000140a0:  4605              addi                    a2,zero,1
0x000140a2:  00000073          ecall                   

----------------
IN: ptmalloc_init.part.0
0x000140a6:  47a1              addi                    a5,zero,8
0x000140a8:  fb840493          addi                    s1,s0,-72
0x000140ac:  06f50063          beq                     a0,a5,96                # 0x1410c

----------------
IN: ptmalloc_init.part.0
0x0001410c:  0006e797          auipc                   a5,110                  # 0x8210c
0x00014110:  aac7b783          ld                      a5,-1364(a5)
0x00014114:  0006e697          auipc                   a3,110                  # 0x82114
0x00014118:  51468693          addi                    a3,a3,1300
0x0001411c:  0006e817          auipc                   a6,110                  # 0x8211c
0x00014120:  56c80813          addi                    a6,a6,1388
0x00014124:  9792              add                     a5,a5,tp
0x00014126:  e394              sd                      a3,0(a5)
0x00014128:  0006f717          auipc                   a4,111                  # 0x83128
0x0001412c:  d5070713          addi                    a4,a4,-688
0x00014130:  87c2              mv                      a5,a6
0x00014132:  ef9c              sd                      a5,24(a5)
0x00014134:  eb9c              sd                      a5,16(a5)
0x00014136:  07c1              addi                    a5,a5,16
0x00014138:  fee79de3          bne                     a5,a4,-6                # 0x14132

----------------
IN: ptmalloc_init.part.0
0x00014132:  ef9c              sd                      a5,24(a5)
0x00014134:  eb9c              sd                      a5,16(a5)
0x00014136:  07c1              addi                    a5,a5,16
0x00014138:  fee79de3          bne                     a5,a4,-6                # 0x14132

----------------
IN: ptmalloc_init.part.0
0x0001413c:  f8000793          addi                    a5,zero,-128
0x00014140:  00f98223          sb                      a5,4(s3)
0x00014144:  0006e797          auipc                   a5,110                  # 0x82144
0x00014148:  4ec78793          addi                    a5,a5,1260
0x0001414c:  0007a023          sw                      zero,0(a5)
0x00014150:  fffff617          auipc                   a2,-1                   # 0x13150
0x00014154:  3de60613          addi                    a2,a2,990
0x00014158:  85a6              mv                      a1,s1
0x0001415a:  4531              addi                    a0,zero,12
0x0001415c:  0706b023          sd                      a6,96(a3)
0x00014160:  4b3060ef          jal                     ra,27826                # 0x1ae12

----------------
IN: ptmalloc_init.part.0
0x00014164:  85a6              mv                      a1,s1
0x00014166:  fffff617          auipc                   a2,-1                   # 0x13166
0x0001416a:  3e460613          addi                    a2,a2,996
0x0001416e:  450d              addi                    a0,zero,3
0x00014170:  4a3060ef          jal                     ra,27810                # 0x1ae12

----------------
IN: ptmalloc_init.part.0
0x00014174:  85a6              mv                      a1,s1
0x00014176:  fffff617          auipc                   a2,-1                   # 0x13176
0x0001417a:  38060613          addi                    a2,a2,896
0x0001417e:  4559              addi                    a0,zero,22
0x00014180:  493060ef          jal                     ra,27794                # 0x1ae12

----------------
IN: ptmalloc_init.part.0
0x00014184:  85a6              mv                      a1,s1
0x00014186:  fffff617          auipc                   a2,-1                   # 0x13186
0x0001418a:  3da60613          addi                    a2,a2,986
0x0001418e:  4509              addi                    a0,zero,2
0x00014190:  483060ef          jal                     ra,27778                # 0x1ae12

----------------
IN: ptmalloc_init.part.0
0x00014194:  85a6              mv                      a1,s1
0x00014196:  fffff617          auipc                   a2,-1                   # 0x13196
0x0001419a:  37c60613          addi                    a2,a2,892
0x0001419e:  4541              addi                    a0,zero,16
0x000141a0:  473060ef          jal                     ra,27762                # 0x1ae12

----------------
IN: ptmalloc_init.part.0
0x000141a4:  85a6              mv                      a1,s1
0x000141a6:  fffff617          auipc                   a2,-1                   # 0x131a6
0x000141aa:  3d660613          addi                    a2,a2,982
0x000141ae:  4555              addi                    a0,zero,21
0x000141b0:  463060ef          jal                     ra,27746                # 0x1ae12

----------------
IN: ptmalloc_init.part.0
0x000141b4:  85a6              mv                      a1,s1
0x000141b6:  fffff617          auipc                   a2,-1                   # 0x131b6
0x000141ba:  3dc60613          addi                    a2,a2,988
0x000141be:  4561              addi                    a0,zero,24
0x000141c0:  453060ef          jal                     ra,27730                # 0x1ae12

----------------
IN: ptmalloc_init.part.0
0x000141c4:  85a6              mv                      a1,s1
0x000141c6:  fffff617          auipc                   a2,-1                   # 0x131c6
0x000141ca:  3e260613          addi                    a2,a2,994
0x000141ce:  4575              addi                    a0,zero,29
0x000141d0:  443060ef          jal                     ra,27714                # 0x1ae12

----------------
IN: ptmalloc_init.part.0
0x000141d4:  85a6              mv                      a1,s1
0x000141d6:  fffff617          auipc                   a2,-1                   # 0x131d6
0x000141da:  40e60613          addi                    a2,a2,1038
0x000141de:  455d              addi                    a0,zero,23
0x000141e0:  433060ef          jal                     ra,27698                # 0x1ae12

----------------
IN: ptmalloc_init.part.0
0x000141e4:  85a6              mv                      a1,s1
0x000141e6:  fffff617          auipc                   a2,-1                   # 0x131e6
0x000141ea:  41a60613          addi                    a2,a2,1050
0x000141ee:  4549              addi                    a0,zero,18
0x000141f0:  423060ef          jal                     ra,27682                # 0x1ae12

----------------
IN: ptmalloc_init.part.0
0x000141f4:  85a6              mv                      a1,s1
0x000141f6:  fffff617          auipc                   a2,-1                   # 0x131f6
0x000141fa:  42060613          addi                    a2,a2,1056
0x000141fe:  4525              addi                    a0,zero,9
0x00014200:  413060ef          jal                     ra,27666                # 0x1ae12

----------------
IN: ptmalloc_init.part.0
0x00014204:  85a6              mv                      a1,s1
0x00014206:  fffff617          auipc                   a2,-1                   # 0x13206
0x0001420a:  5f660613          addi                    a2,a2,1526
0x0001420e:  4521              addi                    a0,zero,8
0x00014210:  403060ef          jal                     ra,27650                # 0x1ae12

----------------
IN: ptmalloc_init.part.0
0x00014214:  0006e497          auipc                   s1,110                  # 0x82214
0x00014218:  37c48493          addi                    s1,s1,892
0x0001421c:  789c              ld                      a5,48(s1)
0x0001421e:  ef99              bnez                    a5,30                   # 0x1423c

----------------
IN: ptmalloc_init.part.0
0x00014220:  fc843703          ld                      a4,-56(s0)
0x00014224:  000a3783          ld                      a5,0(s4)
0x00014228:  8fb9              xor                     a5,a5,a4
0x0001422a:  4701              mv                      a4,zero
0x0001422c:  e785              bnez                    a5,40                   # 0x14254

----------------
IN: ptmalloc_init.part.0
0x0001422e:  60a6              ld                      ra,72(sp)
0x00014230:  6406              ld                      s0,64(sp)
0x00014232:  74e2              ld                      s1,56(sp)
0x00014234:  79a2              ld                      s3,40(sp)
0x00014236:  7a02              ld                      s4,32(sp)
0x00014238:  6161              addi                    sp,sp,80
0x0001423a:  8082              ret                     

----------------
IN: __malloc
0x00016eea:  f409d1e3          bgez                    s3,-190                 # 0x16e2c

----------------
IN: __malloc
0x00016e2c:  e84a              sd                      s2,16(sp)
0x00016e2e:  01798793          addi                    a5,s3,23
0x00016e32:  477d              addi                    a4,zero,31
0x00016e34:  4901              mv                      s2,zero
0x00016e36:  00f77663          bleu                    a5,a4,12                # 0x16e42

----------------
IN: __malloc
0x00016e3a:  9bc1              andi                    a5,a5,-16
0x00016e3c:  17bd              addi                    a5,a5,-17
0x00016e3e:  0047d913          srli                    s2,a5,4
0x00016e42:  02020493          addi                    s1,tp,32
0x00016e46:  649c              ld                      a5,8(s1)
0x00016e48:  c3f1              beqz                    a5,196                  # 0x16f0c

----------------
IN: __malloc
0x00016f0c:  0104c783          lbu                     a5,16(s1)
0x00016f10:  f3b9              bnez                    a5,-186                 # 0x16e56

----------------
IN: __malloc
0x00016f12:  8cbff0ef          jal                     ra,-1846                # 0x167dc

----------------
IN: tcache_init.part.0
0x000167dc:  0006b797          auipc                   a5,107                  # 0x817dc
0x000167e0:  3dc7b783          ld                      a5,988(a5)
0x000167e4:  1101              addi                    sp,sp,-32
0x000167e6:  e822              sd                      s0,16(sp)
0x000167e8:  e426              sd                      s1,8(sp)
0x000167ea:  ec06              sd                      ra,24(sp)
0x000167ec:  e04a              sd                      s2,0(sp)
0x000167ee:  1000              addi                    s0,sp,32
0x000167f0:  9792              add                     a5,a5,tp
0x000167f2:  6384              ld                      s1,0(a5)
0x000167f4:  c8b1              beqz                    s1,84                   # 0x16848

----------------
IN: tcache_init.part.0
0x000167f6:  4705              addi                    a4,zero,1
0x000167f8:  1404a7af          lr.w.aq                 a5,(s1)
0x000167fc:  e781              bnez                    a5,8                    # 0x16804

----------------
IN: tcache_init.part.0
0x000167fe:  18e4a6af          sc.w                    a3,a4,(s1)
0x00016802:  fafd              bnez                    a3,-10                  # 0x167f8

----------------
IN: tcache_init.part.0
0x00016804:  2781              sext.w                  a5,a5
0x00016806:  efd9              bnez                    a5,158                  # 0x168a4

----------------
IN: tcache_init.part.0
0x00016808:  28000593          addi                    a1,zero,640
0x0001680c:  8526              mv                      a0,s1
0x0001680e:  b20ff0ef          jal                     ra,-3296                # 0x15b2e

----------------
IN: _int_malloc
0x00015b2e:  7159              addi                    sp,sp,-112
0x00015b30:  f0a2              sd                      s0,96(sp)
0x00015b32:  f486              sd                      ra,104(sp)
0x00015b34:  e46e              sd                      s11,8(sp)
0x00015b36:  1880              addi                    s0,sp,112
0x00015b38:  4405c763          bltz                    a1,1102                 # 0x15f86

----------------
IN: _int_malloc
0x00015b3c:  eca6              sd                      s1,88(sp)
0x00015b3e:  e8ca              sd                      s2,80(sp)
0x00015b40:  e4ce              sd                      s3,72(sp)
0x00015b42:  e0d2              sd                      s4,64(sp)
0x00015b44:  fc56              sd                      s5,56(sp)
0x00015b46:  01758493          addi                    s1,a1,23
0x00015b4a:  47fd              addi                    a5,zero,31
0x00015b4c:  89ae              mv                      s3,a1
0x00015b4e:  892a              mv                      s2,a0
0x00015b50:  2c97f063          bleu                    s1,a5,704               # 0x15e10

----------------
IN: _int_malloc
0x00015b54:  98c1              andi                    s1,s1,-16
0x00015b56:  44050c63          beqz                    a0,1112                 # 0x15fae

----------------
IN: _int_malloc
0x00015b5a:  00073a17          auipc                   s4,115                  # 0x88b5a
0x00015b5e:  a5ea0a13          addi                    s4,s4,-1442
0x00015b62:  004a4783          lbu                     a5,4(s4)
0x00015b66:  1697eb63          bgtu                    s1,a5,374               # 0x15cdc

----------------
IN: _int_malloc
0x00015cdc:  3ff00793          addi                    a5,zero,1023
0x00015ce0:  6497ff63          bleu                    s1,a5,1630              # 0x1633e

----------------
IN: _int_malloc
0x0001633e:  0044d79b          srliw                   a5,s1,4
0x00016342:  0017979b          slliw                   a5,a5,1
0x00016346:  27b1              addiw                   a5,a5,12
0x00016348:  1782              slli                    a5,a5,32
0x0001634a:  9381              srli                    a5,a5,32
0x0001634c:  0044da9b          srliw                   s5,s1,4
0x00016350:  078e              slli                    a5,a5,3
0x00016352:  bcf1              j                       -1316                   # 0x15e2e

----------------
IN: _int_malloc
0x00015e2e:  97ca              add                     a5,a5,s2
0x00015e30:  6788              ld                      a0,8(a5)
0x00015e32:  ff078613          addi                    a2,a5,-16
0x00015e36:  1aa60463          beq                     a2,a0,424               # 0x15fde

----------------
IN: _int_malloc
0x00015fde:  f85a              sd                      s6,48(sp)
0x00015fe0:  f45e              sd                      s7,40(sp)
0x00015fe2:  f062              sd                      s8,32(sp)
0x00015fe4:  ec66              sd                      s9,24(sp)
0x00015fe6:  e86a              sd                      s10,16(sp)
0x00015fe8:  b335              j                       -724                    # 0x15d14

----------------
IN: _int_malloc
0x00015d14:  02020793          addi                    a5,tp,32
0x00015d18:  679c              ld                      a5,8(a5)
0x00015d1a:  fef48c13          addi                    s8,s1,-17
0x00015d1e:  004c5c13          srli                    s8,s8,4
0x00015d22:  4b81              mv                      s7,zero
0x00015d24:  cb99              beqz                    a5,22                   # 0x15d3a

----------------
IN: _int_malloc
0x00015d3a:  07893703          ld                      a4,120(s2)
0x00015d3e:  06090c93          addi                    s9,s2,96
0x00015d42:  4d01              mv                      s10,zero
0x00015d44:  3b970463          beq                     a4,s9,936               # 0x160ec

----------------
IN: _int_malloc
0x000160ec:  3ff00793          addi                    a5,zero,1023
0x000160f0:  3297ee63          bgtu                    s1,a5,828               # 0x1642c

----------------
IN: _int_malloc
0x000160f4:  001a979b          slliw                   a5,s5,1
0x000160f8:  4585              addi                    a1,zero,1
0x000160fa:  4d8d              addi                    s11,zero,3
0x000160fc:  001a871b          addiw                   a4,s5,1
0x00016100:  0057569b          srliw                   a3,a4,5
0x00016104:  21868693          addi                    a3,a3,536
0x00016108:  27b9              addiw                   a5,a5,14
0x0001610a:  068a              slli                    a3,a3,2
0x0001610c:  1782              slli                    a5,a5,32
0x0001610e:  9381              srli                    a5,a5,32
0x00016110:  96ca              add                     a3,a3,s2
0x00016112:  078e              slli                    a5,a5,3
0x00016114:  4288              lw                      a0,0(a3)
0x00016116:  17c1              addi                    a5,a5,-16
0x00016118:  0057581b          srliw                   a6,a4,5
0x0001611c:  97ca              add                     a5,a5,s2
0x0001611e:  00e5973b          sllw                    a4,a1,a4
0x00016122:  10e56563          bgtu                    a4,a0,266               # 0x1622c

----------------
IN: _int_malloc
0x0001622c:  0018071b          addiw                   a4,a6,1
0x00016230:  02071793          slli                    a5,a4,32
0x00016234:  9381              srli                    a5,a5,32
0x00016236:  21878793          addi                    a5,a5,536
0x0001623a:  078a              slli                    a5,a5,2
0x0001623c:  97ca              add                     a5,a5,s2
0x0001623e:  a039              j                       14                      # 0x1624c

----------------
IN: _int_malloc
0x0001624c:  0007081b          sext.w                  a6,a4
0x00016250:  ff0df8e3          bleu                    a6,s11,-16              # 0x16240

----------------
IN: _int_malloc
0x00016240:  4388              lw                      a0,0(a5)
0x00016242:  0791              addi                    a5,a5,4
0x00016244:  1a051263          bnez                    a0,420                  # 0x163e8

----------------
IN: _int_malloc
0x00016248:  0018071b          addiw                   a4,a6,1
0x0001624c:  0007081b          sext.w                  a6,a4
0x00016250:  ff0df8e3          bleu                    a6,s11,-16              # 0x16240

----------------
IN: _int_malloc
0x00016254:  06093503          ld                      a0,96(s2)
0x00016258:  6705              lui                     a4,1
0x0001625a:  974a              add                     a4,a4,s2
0x0001625c:  651c              ld                      a5,8(a0)
0x0001625e:  88873703          ld                      a4,-1912(a4)
0x00016262:  9be1              andi                    a5,a5,-8
0x00016264:  36f76063          bgtu                    a5,a4,864               # 0x165c4

----------------
IN: _int_malloc
0x00016268:  02048713          addi                    a4,s1,32
0x0001626c:  3ee7f963          bleu                    a4,a5,1010              # 0x1665e

----------------
IN: _int_malloc
0x00016270:  00890793          addi                    a5,s2,8
0x00016274:  439c              lw                      a5,0(a5)
0x00016276:  2781              sext.w                  a5,a5
0x00016278:  48078363          beqz                    a5,1158                 # 0x166fe

----------------
IN: _int_malloc
0x000166fe:  85ca              mv                      a1,s2
0x00016700:  8526              mv                      a0,s1
0x00016702:  d8dfe0ef          jal                     ra,-4724                # 0x1548e

----------------
IN: sysmalloc
0x0001548e:  7135              addi                    sp,sp,-160
0x00015490:  e922              sd                      s0,144(sp)
0x00015492:  e526              sd                      s1,136(sp)
0x00015494:  fcce              sd                      s3,120(sp)
0x00015496:  f0da              sd                      s6,96(sp)
0x00015498:  ecde              sd                      s7,88(sp)
0x0001549a:  fc6e              sd                      s11,56(sp)
0x0001549c:  1100              addi                    s0,sp,160
0x0001549e:  ed06              sd                      ra,152(sp)
0x000154a0:  0006cb97          auipc                   s7,108                  # 0x814a0
0x000154a4:  770bbb83          ld                      s7,1904(s7)
0x000154a8:  0006d897          auipc                   a7,109                  # 0x824a8
0x000154ac:  b188b883          ld                      a7,-1256(a7)
0x000154b0:  000bb783          ld                      a5,0(s7)
0x000154b4:  f8f43423          sd                      a5,-120(s0)
0x000154b8:  4781              mv                      a5,zero
0x000154ba:  0008bb03          ld                      s6,0(a7)
0x000154be:  84ae              mv                      s1,a1
0x000154c0:  89aa              mv                      s3,a0
0x000154c2:  0006dd97          auipc                   s11,109                 # 0x824c2
0x000154c6:  0ced8d93          addi                    s11,s11,206
0x000154ca:  14058163          beqz                    a1,322                  # 0x1560c

----------------
IN: sysmalloc
0x000154ce:  010db783          ld                      a5,16(s11)
0x000154d2:  12f57763          bleu                    a5,a0,302               # 0x15600

----------------
IN: sysmalloc
0x000154d6:  0604b803          ld                      a6,96(s1)
0x000154da:  f8d2              sd                      s4,112(sp)
0x000154dc:  f4d6              sd                      s5,104(sp)
0x000154de:  00883783          ld                      a5,8(a6)
0x000154e2:  e14a              sd                      s2,128(sp)
0x000154e4:  e8e2              sd                      s8,80(sp)
0x000154e6:  ff87fa13          andi                    s4,a5,-8
0x000154ea:  e4e6              sd                      s9,72(sp)
0x000154ec:  e0ea              sd                      s10,64(sp)
0x000154ee:  f6043c23          sd                      zero,-136(s0)
0x000154f2:  06048713          addi                    a4,s1,96
0x000154f6:  01480ab3          add                     s5,a6,s4
0x000154fa:  16e80063          beq                     a6,a4,352               # 0x1565a

----------------
IN: sysmalloc
0x0001565a:  ea0a12e3          bnez                    s4,-348                 # 0x154fe

----------------
IN: sysmalloc
0x0001565e:  02098d13          addi                    s10,s3,32
0x00015662:  bd75              j                       -324                    # 0x1551e

----------------
IN: sysmalloc
0x0001551e:  0006dc97          auipc                   s9,109                  # 0x8251e
0x00015522:  10ac8c93          addi                    s9,s9,266
0x00015526:  1d948063          beq                     s1,s9,448               # 0x156e6

----------------
IN: sysmalloc
0x000156e6:  008db783          ld                      a5,8(s11)
0x000156ea:  40d8              lw                      a4,4(s1)
0x000156ec:  02078793          addi                    a5,a5,32
0x000156f0:  8b09              andi                    a4,a4,2
0x000156f2:  97ce              add                     a5,a5,s3
0x000156f4:  e319              bnez                    a4,6                    # 0x156fa

----------------
IN: sysmalloc
0x000156f6:  414787b3          sub                     a5,a5,s4
0x000156fa:  028db703          ld                      a4,40(s11)
0x000156fe:  2e071a63          bnez                    a4,756                  # 0x159f2

----------------
IN: sysmalloc
0x00015702:  0008b703          ld                      a4,0(a7)
0x00015706:  fff70c13          addi                    s8,a4,-1
0x0001570a:  9c3e              add                     s8,s8,a5
0x0001570c:  40e00733          neg                     a4,a4
0x00015710:  00ec7c33          and                     s8,s8,a4
0x00015714:  f9843023          sd                      s8,-128(s0)
0x00015718:  1b804163          bgtz                    s8,418                  # 0x158ba

----------------
IN: sysmalloc
0x000158ba:  00073797          auipc                   a5,115                  # 0x888ba
0x000158be:  d0e7c783          lbu                     a5,-754(a5)
0x000158c2:  e4079de3          bnez                    a5,-422                 # 0x1571c

----------------
IN: sysmalloc
0x000158c6:  8562              mv                      a0,s8
0x000158c8:  f7043c23          sd                      a6,-136(s0)
0x000158cc:  711030ef          jal                     ra,16144                # 0x197dc

----------------
IN: sbrk
0x000197dc:  7179              addi                    sp,sp,-48
0x000197de:  f022              sd                      s0,32(sp)
0x000197e0:  ec26              sd                      s1,24(sp)
0x000197e2:  e84a              sd                      s2,16(sp)
0x000197e4:  e44e              sd                      s3,8(sp)
0x000197e6:  f406              sd                      ra,40(sp)
0x000197e8:  1800              addi                    s0,sp,48
0x000197ea:  0006f997          auipc                   s3,111                  # 0x887ea
0x000197ee:  e1e98993          addi                    s3,s3,-482
0x000197f2:  0009b903          ld                      s2,0(s3)
0x000197f6:  84aa              mv                      s1,a0
0x000197f8:  04090b63          beqz                    s2,86                   # 0x1984e

----------------
IN: sbrk
0x0001984e:  4501              mv                      a0,zero
0x00019850:  8f7ff0ef          jal                     ra,-1802                # 0x19146

----------------
IN: __brk
0x00019146:  1141              addi                    sp,sp,-16
0x00019148:  e422              sd                      s0,8(sp)
0x0001914a:  0800              addi                    s0,sp,16
0x0001914c:  87aa              mv                      a5,a0
0x0001914e:  0d600893          addi                    a7,zero,214
0x00019152:  00000073          ecall                   

----------------
IN: __brk
0x00019156:  0006f717          auipc                   a4,111                  # 0x88156
0x0001915a:  4aa73923          sd                      a0,1202(a4)
0x0001915e:  00f56663          bgtu                    a5,a0,12                # 0x1916a

----------------
IN: __brk
0x00019162:  4501              mv                      a0,zero
0x00019164:  6422              ld                      s0,8(sp)
0x00019166:  0141              addi                    sp,sp,16
0x00019168:  8082              ret                     

----------------
IN: sbrk
0x00019854:  fc0542e3          bltz                    a0,-60                  # 0x19818

----------------
IN: sbrk
0x00019858:  0009b903          ld                      s2,0(s3)
0x0001985c:  b745              j                       -96                     # 0x197fc

----------------
IN: sbrk
0x000197fc:  cc99              beqz                    s1,30                   # 0x1981a

----------------
IN: sbrk
0x000197fe:  02905663          blez                    s1,44                   # 0x1982a

----------------
IN: sbrk
0x00019802:  00990533          add                     a0,s2,s1
0x00019806:  03257863          bleu                    s2,a0,48                # 0x19836

----------------
IN: sbrk
0x00019836:  911ff0ef          jal                     ra,-1776                # 0x19146

----------------
IN: sbrk
0x0001983a:  fc054fe3          bltz                    a0,-34                  # 0x19818

----------------
IN: sbrk
0x0001983e:  70a2              ld                      ra,40(sp)
0x00019840:  7402              ld                      s0,32(sp)
0x00019842:  64e2              ld                      s1,24(sp)
0x00019844:  69a2              ld                      s3,8(sp)
0x00019846:  854a              mv                      a0,s2
0x00019848:  6942              ld                      s2,16(sp)
0x0001984a:  6145              addi                    sp,sp,48
0x0001984c:  8082              ret                     

----------------
IN: sysmalloc
0x000158d0:  57fd              addi                    a5,zero,-1
0x000158d2:  f7843803          ld                      a6,-136(s0)
0x000158d6:  892a              mv                      s2,a0
0x000158d8:  0006c897          auipc                   a7,108                  # 0x818d8
0x000158dc:  6e88b883          ld                      a7,1768(a7)
0x000158e0:  e2f50ee3          beq                     a0,a5,-452              # 0x1571c

----------------
IN: sysmalloc
0x000158e4:  e2050ce3          beqz                    a0,-456                 # 0x1571c

----------------
IN: sysmalloc
0x000158e8:  028db783          ld                      a5,40(s11)
0x000158ec:  c395              beqz                    a5,36                   # 0x15910

----------------
IN: sysmalloc
0x00015910:  4701              mv                      a4,zero
0x00015912:  b591              j                       -444                    # 0x15756

----------------
IN: sysmalloc
0x00015756:  060db783          ld                      a5,96(s11)
0x0001575a:  26078463          beqz                    a5,616                  # 0x159c2

----------------
IN: sysmalloc
0x000159c2:  072db023          sd                      s2,96(s11)
0x000159c6:  bb61              j                       -616                    # 0x1575e

----------------
IN: sysmalloc
0x0001575e:  0006e697          auipc                   a3,110                  # 0x8375e
0x00015762:  eca68693          addi                    a3,a3,-310
0x00015766:  8886b783          ld                      a5,-1912(a3)
0x0001576a:  97e2              add                     a5,a5,s8
0x0001576c:  88f6b423          sd                      a5,-1912(a3)
0x00015770:  232a8f63          beq                     s5,s2,574               # 0x159ae

----------------
IN: sysmalloc
0x00015774:  004ca603          lw                      a2,4(s9)
0x00015778:  8a09              andi                    a2,a2,2
0x0001577a:  1c061063          bnez                    a2,448                  # 0x1593a

----------------
IN: sysmalloc
0x0001577e:  000a0963          beqz                    s4,18                   # 0x15790

----------------
IN: sysmalloc
0x00015790:  00f97713          andi                    a4,s2,15
0x00015794:  20071763          bnez                    a4,526                  # 0x159a2

----------------
IN: sysmalloc
0x000159a2:  47c1              addi                    a5,zero,16
0x000159a4:  8f99              sub                     a5,a5,a4
0x000159a6:  00f90ab3          add                     s5,s2,a5
0x000159aa:  97d2              add                     a5,a5,s4
0x000159ac:  bbc5              j                       -528                    # 0x1579c

----------------
IN: sysmalloc
0x0001579c:  9c3e              add                     s8,s8,a5
0x0001579e:  9c4a              add                     s8,s8,s2
0x000157a0:  fffb0713          addi                    a4,s6,-1
0x000157a4:  9762              add                     a4,a4,s8
0x000157a6:  41600b33          neg                     s6,s6
0x000157aa:  01677b33          and                     s6,a4,s6
0x000157ae:  418787b3          sub                     a5,a5,s8
0x000157b2:  9b3e              add                     s6,s6,a5
0x000157b4:  320b4563          bltz                    s6,810                  # 0x15ade

----------------
IN: sysmalloc
0x000157b8:  00073917          auipc                   s2,115                  # 0x887b8
0x000157bc:  e0090913          addi                    s2,s2,-512
0x000157c0:  01094783          lbu                     a5,16(s2)
0x000157c4:  1c079a63          bnez                    a5,468                  # 0x15998

----------------
IN: sysmalloc
0x000157c8:  855a              mv                      a0,s6
0x000157ca:  f7043c23          sd                      a6,-136(s0)
0x000157ce:  00e040ef          jal                     ra,16398                # 0x197dc

----------------
IN: sysmalloc
0x000157d2:  57fd              addi                    a5,zero,-1
0x000157d4:  f7843803          ld                      a6,-136(s0)
0x000157d8:  872a              mv                      a4,a0
0x000157da:  0006e697          auipc                   a3,110                  # 0x837da
0x000157de:  e4e68693          addi                    a3,a3,-434
0x000157e2:  22f50863          beq                     a0,a5,560               # 0x15a12

----------------
IN: sysmalloc
0x000157e6:  0006c897          auipc                   a7,108                  # 0x817e6
0x000157ea:  7da8b883          ld                      a7,2010(a7)
0x000157ee:  22050263          beqz                    a0,548                  # 0x15a12

----------------
IN: sysmalloc
0x000157f2:  028db783          ld                      a5,40(s11)
0x000157f6:  1e078963          beqz                    a5,498                  # 0x159e8

----------------
IN: sysmalloc
0x000159e8:  8886b783          ld                      a5,-1912(a3)
0x000159ec:  8956              mv                      s2,s5
0x000159ee:  97da              add                     a5,a5,s6
0x000159f0:  bfa1              j                       -168                    # 0x15948

----------------
IN: sysmalloc
0x00015948:  41270733          sub                     a4,a4,s2
0x0001594c:  975a              add                     a4,a4,s6
0x0001594e:  072cb023          sd                      s2,96(s9)
0x00015952:  00176713          ori                     a4,a4,1
0x00015956:  00e93423          sd                      a4,8(s2)
0x0001595a:  88f6b423          sd                      a5,-1912(a3)
0x0001595e:  c20a08e3          beqz                    s4,-976                 # 0x1558e

----------------
IN: sysmalloc
0x0001558e:  6705              lui                     a4,1
0x00015590:  9726              add                     a4,a4,s1
0x00015592:  89073683          ld                      a3,-1904(a4)
0x00015596:  00f6f463          bleu                    a5,a3,8                 # 0x1559e

----------------
IN: sysmalloc
0x0001559a:  88f73823          sd                      a5,-1904(a4)
0x0001559e:  00893703          ld                      a4,8(s2)
0x000155a2:  9b61              andi                    a4,a4,-8
0x000155a4:  13a76263          bgtu                    s10,a4,292              # 0x156c8

----------------
IN: sysmalloc
0x000155a8:  419487b3          sub                     a5,s1,s9
0x000155ac:  00f037b3          snez                    a5,a5
0x000155b0:  078a              slli                    a5,a5,2
0x000155b2:  013906b3          add                     a3,s2,s3
0x000155b6:  0137e7b3          or                      a5,a5,s3
0x000155ba:  f0b4              sd                      a3,96(s1)
0x000155bc:  0017e793          ori                     a5,a5,1
0x000155c0:  41370733          sub                     a4,a4,s3
0x000155c4:  00f93423          sd                      a5,8(s2)
0x000155c8:  00176713          ori                     a4,a4,1
0x000155cc:  e698              sd                      a4,8(a3)
0x000155ce:  01090513          addi                    a0,s2,16
0x000155d2:  690a              ld                      s2,128(sp)
0x000155d4:  7a46              ld                      s4,112(sp)
0x000155d6:  7aa6              ld                      s5,104(sp)
0x000155d8:  6c46              ld                      s8,80(sp)
0x000155da:  6ca6              ld                      s9,72(sp)
0x000155dc:  6d06              ld                      s10,64(sp)
0x000155de:  f8843703          ld                      a4,-120(s0)
0x000155e2:  000bb783          ld                      a5,0(s7)
0x000155e6:  8fb9              xor                     a5,a5,a4
0x000155e8:  4701              mv                      a4,zero
0x000155ea:  4c079163          bnez                    a5,1218                 # 0x15aac

----------------
IN: sysmalloc
0x000155ee:  60ea              ld                      ra,152(sp)
0x000155f0:  644a              ld                      s0,144(sp)
0x000155f2:  64aa              ld                      s1,136(sp)
0x000155f4:  79e6              ld                      s3,120(sp)
0x000155f6:  7b06              ld                      s6,96(sp)
0x000155f8:  6be6              ld                      s7,88(sp)
0x000155fa:  7de2              ld                      s11,56(sp)
0x000155fc:  610d              addi                    sp,sp,160
0x000155fe:  8082              ret                     

----------------
IN: _int_malloc
0x00016706:  8daa              mv                      s11,a0
0x00016708:  920505e3          beqz                    a0,-1750                # 0x16032

----------------
IN: _int_malloc
0x0001670c:  85ce              mv                      a1,s3
0x0001670e:  838fd0ef          jal                     ra,-12232               # 0x13746

----------------
IN: alloc_perturb
0x00013746:  1141              addi                    sp,sp,-16
0x00013748:  e422              sd                      s0,8(sp)
0x0001374a:  0800              addi                    s0,sp,16
0x0001374c:  00075797          auipc                   a5,117                  # 0x8874c
0x00013750:  e6c7a783          lw                      a5,-404(a5)
0x00013754:  e781              bnez                    a5,8                    # 0x1375c

----------------
IN: alloc_perturb
0x00013756:  6422              ld                      s0,8(sp)
0x00013758:  0141              addi                    sp,sp,16
0x0001375a:  8082              ret                     

----------------
IN: _int_malloc
0x00016712:  b205              j                       -1760                   # 0x16032

----------------
IN: _int_malloc
0x00016032:  64e6              ld                      s1,88(sp)
0x00016034:  6946              ld                      s2,80(sp)
0x00016036:  69a6              ld                      s3,72(sp)
0x00016038:  6a06              ld                      s4,64(sp)
0x0001603a:  7ae2              ld                      s5,56(sp)
0x0001603c:  7b42              ld                      s6,48(sp)
0x0001603e:  7ba2              ld                      s7,40(sp)
0x00016040:  7c02              ld                      s8,32(sp)
0x00016042:  6ce2              ld                      s9,24(sp)
0x00016044:  6d42              ld                      s10,16(sp)
0x00016046:  b701              j                       -256                    # 0x15f46

----------------
IN: _int_malloc
0x00015f46:  70a6              ld                      ra,104(sp)
0x00015f48:  7406              ld                      s0,96(sp)
0x00015f4a:  856e              mv                      a0,s11
0x00015f4c:  6da2              ld                      s11,8(sp)
0x00015f4e:  6165              addi                    sp,sp,112
0x00015f50:  8082              ret                     

----------------
IN: tcache_init.part.0
0x00016812:  892a              mv                      s2,a0
0x00016814:  c929              beqz                    a0,82                   # 0x16866

----------------
IN: tcache_init.part.0
0x00016816:  4781              mv                      a5,zero
0x00016818:  0af4a7af          amoswap.w.rl            a5,a5,(s1)
0x0001681c:  4705              addi                    a4,zero,1
0x0001681e:  2781              sext.w                  a5,a5
0x00016820:  00f75563          ble                     a5,a4,10                # 0x1682a

----------------
IN: tcache_init.part.0
0x0001682a:  6442              ld                      s0,16(sp)
0x0001682c:  02020793          addi                    a5,tp,32
0x00016830:  60e2              ld                      ra,24(sp)
0x00016832:  64a2              ld                      s1,8(sp)
0x00016834:  0127b423          sd                      s2,8(a5)
0x00016838:  854a              mv                      a0,s2
0x0001683a:  6902              ld                      s2,0(sp)
0x0001683c:  28000613          addi                    a2,zero,640
0x00016840:  4581              mv                      a1,zero
0x00016842:  6105              addi                    sp,sp,32
0x00016844:  73b0106f          j                       7994                    # 0x1877e

----------------
IN: memset
0x00018826:  87b6              mv                      a5,a3
0x00018828:  8a1d              andi                    a2,a2,7
0x0001882a:  bfd1              j                       -44                     # 0x187fe

----------------
IN: memset
0x000187fe:  0ff5f593          andi                    a1,a1,255
0x00018802:  00c78733          add                     a4,a5,a2
0x00018806:  c611              beqz                    a2,12                   # 0x18812

----------------
IN: __malloc
0x00016f16:  0006b797          auipc                   a5,107                  # 0x81f16
0x00016f1a:  6e27b783          ld                      a5,1762(a5)
0x00016f1e:  f2f97ce3          bleu                    a5,s2,-200              # 0x16e56

----------------
IN: __malloc
0x00016f22:  649c              ld                      a5,8(s1)
0x00016f24:  db8d              beqz                    a5,-206                 # 0x16e56

----------------
IN: __malloc
0x00016f26:  00191713          slli                    a4,s2,1
0x00016f2a:  973e              add                     a4,a4,a5
0x00016f2c:  00075683          lhu                     a3,0(a4)
0x00016f30:  d29d              beqz                    a3,-218                 # 0x16e56

----------------
IN: __malloc
0x00016e56:  8a022783          lw                      a5,-1888(tp)
0x00016e5a:  10078563          beqz                    a5,266                  # 0x16f64

----------------
IN: __malloc
0x00016f64:  85ce              mv                      a1,s3
0x00016f66:  0006b517          auipc                   a0,107                  # 0x81f66
0x00016f6a:  6c250513          addi                    a0,a0,1730
0x00016f6e:  bc1fe0ef          jal                     ra,-5184                # 0x15b2e

----------------
IN: _int_malloc
0x00015b6a:  0044d59b          srliw                   a1,s1,4
0x00015b6e:  02059713          slli                    a4,a1,32
0x00015b72:  35f9              addiw                   a1,a1,-2
0x00015b74:  02059793          slli                    a5,a1,32
0x00015b78:  01d7d593          srli                    a1,a5,29
0x00015b7c:  95ca              add                     a1,a1,s2
0x00015b7e:  699c              ld                      a5,16(a1)
0x00015b80:  9301              srli                    a4,a4,32
0x00015b82:  0044da9b          srliw                   s5,s1,4
0x00015b86:  070e              slli                    a4,a4,3
0x00015b88:  38078b63          beqz                    a5,918                  # 0x15f1e

----------------
IN: _int_malloc
0x00015f1e:  001a979b          slliw                   a5,s5,1
0x00015f22:  27b1              addiw                   a5,a5,12
0x00015f24:  1782              slli                    a5,a5,32
0x00015f26:  83f5              srli                    a5,a5,29
0x00015f28:  b719              j                       -250                    # 0x15e2e

----------------
IN: _int_malloc
0x00015d26:  0006db97          auipc                   s7,109                  # 0x82d26
0x00015d2a:  8d2bbb83          ld                      s7,-1838(s7)
0x00015d2e:  017c3bb3          sltu                    s7,s8,s7
0x00015d32:  41700bb3          neg                     s7,s7
0x00015d36:  0174fbb3          and                     s7,s1,s7
0x00015d3a:  07893703          ld                      a4,120(s2)
0x00015d3e:  06090c93          addi                    s9,s2,96
0x00015d42:  4d01              mv                      s10,zero
0x00015d44:  3b970463          beq                     a4,s9,936               # 0x160ec

----------------
IN: _int_malloc
0x0001665e:  0006c717          auipc                   a4,108                  # 0x8265e
0x00016662:  fca70713          addi                    a4,a4,-54
0x00016666:  40e90733          sub                     a4,s2,a4
0x0001666a:  00e03733          snez                    a4,a4
0x0001666e:  070a              slli                    a4,a4,2
0x00016670:  009506b3          add                     a3,a0,s1
0x00016674:  8f45              or                      a4,a4,s1
0x00016676:  06d93023          sd                      a3,96(s2)
0x0001667a:  00176713          ori                     a4,a4,1
0x0001667e:  8f85              sub                     a5,a5,s1
0x00016680:  e518              sd                      a4,8(a0)
0x00016682:  0017e793          ori                     a5,a5,1
0x00016686:  01050d93          addi                    s11,a0,16
0x0001668a:  e69c              sd                      a5,8(a3)
0x0001668c:  85ce              mv                      a1,s3
0x0001668e:  856e              mv                      a0,s11
0x00016690:  8b6fd0ef          jal                     ra,-12106               # 0x13746

----------------
IN: _int_malloc
0x00016694:  ba79              j                       -1634                   # 0x16032

----------------
IN: __malloc
0x00016f72:  84aa              mv                      s1,a0
0x00016f74:  cd25              beqz                    a0,120                  # 0x16fec

----------------
IN: __malloc
0x00016f76:  ff853783          ld                      a5,-8(a0)
0x00016f7a:  0027f713          andi                    a4,a5,2
0x00016f7e:  ff21              bnez                    a4,-168                 # 0x16ed6

----------------
IN: __malloc
0x00016f80:  8b91              andi                    a5,a5,4
0x00016f82:  dbb1              beqz                    a5,-172                 # 0x16ed6

----------------
IN: __malloc
0x00016ed6:  70a2              ld                      ra,40(sp)
0x00016ed8:  7402              ld                      s0,32(sp)
0x00016eda:  6942              ld                      s2,16(sp)
0x00016edc:  69a2              ld                      s3,8(sp)
0x00016ede:  8526              mv                      a0,s1
0x00016ee0:  64e2              ld                      s1,24(sp)
0x00016ee2:  6145              addi                    sp,sp,48
0x00016ee4:  8082              ret                     

----------------
IN: _dl_get_origin
0x0002c2a0:  89aa              mv                      s3,a0
0x0002c2a2:  d165              beqz                    a0,-32                  # 0x2c282

----------------
IN: _dl_get_origin
0x0002c2a4:  34fd              addiw                   s1,s1,-1
0x0002c2a6:  8626              mv                      a2,s1
0x0002c2a8:  85ca              mv                      a1,s2
0x0002c2aa:  afcec0ef          jal                     ra,-81156               # 0x185a6

----------------
IN: _wordcopy_fwd_aligned
0x00018b8c:  6198              ld                      a4,0(a1)
0x00018b8e:  fe050793          addi                    a5,a0,-32
0x00018b92:  15a1              addi                    a1,a1,-24
0x00018b94:  060d              addi                    a2,a2,3
0x00018b96:  b7b5              j                       -148                    # 0x18b02

----------------
IN: _wordcopy_fwd_aligned
0x00018b02:  0205b803          ld                      a6,32(a1)
0x00018b06:  02878693          addi                    a3,a5,40
0x00018b0a:  e118              sd                      a4,0(a0)
0x00018b0c:  7598              ld                      a4,40(a1)
0x00018b0e:  03078513          addi                    a0,a5,48
0x00018b12:  0106b023          sd                      a6,0(a3)
0x00018b16:  0305b803          ld                      a6,48(a1)
0x00018b1a:  03878693          addi                    a3,a5,56
0x00018b1e:  e118              sd                      a4,0(a0)
0x00018b20:  7d98              ld                      a4,56(a1)
0x00018b22:  04078793          addi                    a5,a5,64
0x00018b26:  0106b023          sd                      a6,0(a3)
0x00018b2a:  1661              addi                    a2,a2,-8
0x00018b2c:  853e              mv                      a0,a5
0x00018b2e:  04058593          addi                    a1,a1,64
0x00018b32:  ea11              bnez                    a2,20                   # 0x18b46

----------------
IN: memcpy
0x00018616:  0007c603          lbu                     a2,0(a5)
0x0001861a:  0785              addi                    a5,a5,1
0x0001861c:  00f706b3          add                     a3,a4,a5
0x00018620:  00c68023          sb                      a2,0(a3)
0x00018624:  fef599e3          bne                     a1,a5,-14               # 0x18616

----------------
IN: _dl_get_origin
0x0002c2ae:  9526              add                     a0,a0,s1
0x0002c2b0:  00050023          sb                      zero,0(a0)
0x0002c2b4:  bfc1              j                       -48                     # 0x2c284

----------------
IN: _dl_get_origin
0x0002c284:  6285              lui                     t0,1
0x0002c286:  9116              add                     sp,sp,t0
0x0002c288:  70a2              ld                      ra,40(sp)
0x0002c28a:  854e              mv                      a0,s3
0x0002c28c:  7402              ld                      s0,32(sp)
0x0002c28e:  64e2              ld                      s1,24(sp)
0x0002c290:  6942              ld                      s2,16(sp)
0x0002c292:  69a2              ld                      s3,8(sp)
0x0002c294:  6145              addi                    sp,sp,48
0x0002c296:  8082              ret                     

----------------
IN: _dl_non_dynamic_init
0x0001b050:  0006db17          auipc                   s6,109                  # 0x88050
0x0001b054:  5f8b0b13          addi                    s6,s6,1528
0x0001b058:  040b3683          ld                      a3,64(s6)
0x0001b05c:  048b3703          ld                      a4,72(s6)
0x0001b060:  038b3783          ld                      a5,56(s6)
0x0001b064:  00068917          auipc                   s2,104                  # 0x83064
0x0001b068:  f0c90913          addi                    s2,s2,-244
0x0001b06c:  36a93023          sd                      a0,864(s2)
0x0001b070:  2cd93023          sd                      a3,704(s2)
0x0001b074:  2ce91823          sh                      a4,720(s2)
0x0001b078:  4981              mv                      s3,zero
0x0001b07a:  52078363          beqz                    a5,1318                 # 0x1b5a0

----------------
IN: _dl_non_dynamic_init
0x0001b07e:  0003a597          auipc                   a1,58                   # 0x5507e
0x0001b082:  b3258593          addi                    a1,a1,-1230
0x0001b086:  4781              mv                      a5,zero
0x0001b088:  01000737          lui                     a4,4096
0x0001b08c:  4681              mv                      a3,zero
0x0001b08e:  4605              addi                    a2,zero,1
0x0001b090:  852e              mv                      a0,a1
0x0001b092:  71b100ef          jal                     ra,69402                # 0x2bfac

----------------
IN: _dl_new_object
0x0002bfac:  711d              addi                    sp,sp,-96
0x0002bfae:  ec86              sd                      ra,88(sp)
0x0002bfb0:  e8a2              sd                      s0,80(sp)
0x0002bfb2:  e4a6              sd                      s1,72(sp)
0x0002bfb4:  e0ca              sd                      s2,64(sp)
0x0002bfb6:  fc4e              sd                      s3,56(sp)
0x0002bfb8:  f852              sd                      s4,48(sp)
0x0002bfba:  f456              sd                      s5,40(sp)
0x0002bfbc:  f05a              sd                      s6,32(sp)
0x0002bfbe:  ec5e              sd                      s7,24(sp)
0x0002bfc0:  e862              sd                      s8,16(sp)
0x0002bfc2:  1080              addi                    s0,sp,96
0x0002bfc4:  8aaa              mv                      s5,a0
0x0002bfc6:  852e              mv                      a0,a1
0x0002bfc8:  8c2e              mv                      s8,a1
0x0002bfca:  8b32              mv                      s6,a2
0x0002bfcc:  84b6              mv                      s1,a3
0x0002bfce:  8a3a              mv                      s4,a4
0x0002bfd0:  89be              mv                      s3,a5
0x0002bfd2:  9cdec0ef          jal                     ra,-79412               # 0x1899e

----------------
IN: __strlen
0x0001899e:  0feff737          lui                     a4,65279
0x000189a2:  1141              addi                    sp,sp,-16
0x000189a4:  0712              slli                    a4,a4,4
0x000189a6:  e422              sd                      s0,8(sp)
0x000189a8:  eff70713          addi                    a4,a4,-257
0x000189ac:  0800              addi                    s0,sp,16
0x000189ae:  ff857793          andi                    a5,a0,-8
0x000189b2:  0742              slli                    a4,a4,16
0x000189b4:  6390              ld                      a2,0(a5)
0x000189b6:  eff70713          addi                    a4,a4,-257
0x000189ba:  073e              slli                    a4,a4,15
0x000189bc:  f7f70713          addi                    a4,a4,-129
0x000189c0:  00e676b3          and                     a3,a2,a4
0x000189c4:  96ba              add                     a3,a3,a4
0x000189c6:  8ed1              or                      a3,a3,a2
0x000189c8:  8f55              or                      a4,a4,a3
0x000189ca:  00757693          andi                    a3,a0,7
0x000189ce:  fff74713          not                     a4,a4
0x000189d2:  0036969b          slliw                   a3,a3,3
0x000189d6:  00d75733          srl                     a4,a4,a3
0x000189da:  e741              bnez                    a4,136                  # 0x18a62

----------------
IN: __strlen
0x00018a62:  08077793          andi                    a5,a4,128
0x00018a66:  4501              mv                      a0,zero
0x00018a68:  fbf5              bnez                    a5,-12                  # 0x18a5c

----------------
IN: __strlen
0x00018a5c:  6422              ld                      s0,8(sp)
0x00018a5e:  0141              addi                    sp,sp,16
0x00018a60:  8082              ret                     

----------------
IN: _dl_new_object
0x0002bfd6:  8baa              mv                      s7,a0
0x0002bfd8:  4585              addi                    a1,zero,1
0x0002bfda:  4a150513          addi                    a0,a0,1185
0x0002bfde:  adbeb0ef          jal                     ra,-83238               # 0x17ab8

----------------
IN: __libc_calloc
0x00017ab8:  7139              addi                    sp,sp,-64
0x00017aba:  f04a              sd                      s2,32(sp)
0x00017abc:  02b50933          mul                     s2,a0,a1
0x00017ac0:  f822              sd                      s0,48(sp)
0x00017ac2:  fc06              sd                      ra,56(sp)
0x00017ac4:  f426              sd                      s1,40(sp)
0x00017ac6:  0080              addi                    s0,sp,64
0x00017ac8:  02b537b3          mulhu                   a5,a0,a1
0x00017acc:  22094663          bltz                    s2,556                  # 0x17cf8

----------------
IN: __libc_calloc
0x00017ad0:  00f037b3          snez                    a5,a5
0x00017ad4:  22079263          bnez                    a5,548                  # 0x17cf8

----------------
IN: __libc_calloc
0x00017ad8:  ec4e              sd                      s3,24(sp)
0x00017ada:  00071997          auipc                   s3,113                  # 0x88ada
0x00017ade:  ade98993          addi                    s3,s3,-1314
0x00017ae2:  0059c783          lbu                     a5,5(s3)
0x00017ae6:  e852              sd                      s4,16(sp)
0x00017ae8:  e456              sd                      s5,8(sp)
0x00017aea:  e05a              sd                      s6,0(sp)
0x00017aec:  1a078e63          beqz                    a5,444                  # 0x17ca8

----------------
IN: __libc_calloc
0x00017af0:  02020793          addi                    a5,tp,32
0x00017af4:  6798              ld                      a4,8(a5)
0x00017af6:  20070a63          beqz                    a4,532                  # 0x17d0a

----------------
IN: __libc_calloc
0x00017afa:  8a022783          lw                      a5,-1888(tp)
0x00017afe:  10078f63          beqz                    a5,286                  # 0x17c1c

----------------
IN: __libc_calloc
0x00017c1c:  0006ba97          auipc                   s5,107                  # 0x82c1c
0x00017c20:  a0ca8a93          addi                    s5,s5,-1524
0x00017c24:  060abb03          ld                      s6,96(s5)
0x00017c28:  85ca              mv                      a1,s2
0x00017c2a:  8556              mv                      a0,s5
0x00017c2c:  008b3a03          ld                      s4,8(s6)
0x00017c30:  efffd0ef          jal                     ra,-8450                # 0x15b2e

----------------
IN: _int_malloc
0x00015ce4:  f85a              sd                      s6,48(sp)
0x00015ce6:  f45e              sd                      s7,40(sp)
0x00015ce8:  f062              sd                      s8,32(sp)
0x00015cea:  ec66              sd                      s9,24(sp)
0x00015cec:  e86a              sd                      s10,16(sp)
0x00015cee:  0064da93          srli                    s5,s1,6
0x00015cf2:  03000793          addi                    a5,zero,48
0x00015cf6:  2357fa63          bleu                    s5,a5,564               # 0x15f2a

----------------
IN: _int_malloc
0x00015f2a:  030a8a9b          addiw                   s5,s5,48
0x00015f2e:  bbe9              j                       -550                    # 0x15d08

----------------
IN: _int_malloc
0x00015d08:  00890793          addi                    a5,s2,8
0x00015d0c:  439c              lw                      a5,0(a5)
0x00015d0e:  2781              sext.w                  a5,a5
0x00015d10:  28079963          bnez                    a5,658                  # 0x15fa2

----------------
IN: _int_malloc
0x0001642c:  001a979b          slliw                   a5,s5,1
0x00016430:  00c7871b          addiw                   a4,a5,12
0x00016434:  1702              slli                    a4,a4,32
0x00016436:  8375              srli                    a4,a4,29
0x00016438:  974a              add                     a4,a4,s2
0x0001643a:  6314              ld                      a3,0(a4)
0x0001643c:  ff070613          addi                    a2,a4,-16
0x00016440:  cac68ce3          beq                     a3,a2,-840              # 0x160f8

----------------
IN: _int_malloc
0x000160f8:  4585              addi                    a1,zero,1
0x000160fa:  4d8d              addi                    s11,zero,3
0x000160fc:  001a871b          addiw                   a4,s5,1
0x00016100:  0057569b          srliw                   a3,a4,5
0x00016104:  21868693          addi                    a3,a3,536
0x00016108:  27b9              addiw                   a5,a5,14
0x0001610a:  068a              slli                    a3,a3,2
0x0001610c:  1782              slli                    a5,a5,32
0x0001610e:  9381              srli                    a5,a5,32
0x00016110:  96ca              add                     a3,a3,s2
0x00016112:  078e              slli                    a5,a5,3
0x00016114:  4288              lw                      a0,0(a3)
0x00016116:  17c1              addi                    a5,a5,-16
0x00016118:  0057581b          srliw                   a6,a4,5
0x0001611c:  97ca              add                     a5,a5,s2
0x0001611e:  00e5973b          sllw                    a4,a1,a4
0x00016122:  10e56563          bgtu                    a4,a0,266               # 0x1622c

----------------
IN: __libc_calloc
0x00017c34:  84aa              mv                      s1,a0
0x00017c36:  ff8a7a13          andi                    s4,s4,-8
0x00017c3a:  fd05              bnez                    a0,-200                 # 0x17b72

----------------
IN: __libc_calloc
0x00017b72:  ff853603          ld                      a2,-8(a0)
0x00017b76:  00267793          andi                    a5,a2,2
0x00017b7a:  10079563          bnez                    a5,266                  # 0x17c84

----------------
IN: __libc_calloc
0x00017b7e:  00467793          andi                    a5,a2,4
0x00017b82:  ff050713          addi                    a4,a0,-16
0x00017b86:  12079763          bnez                    a5,302                  # 0x17cb4

----------------
IN: __libc_calloc
0x00017b8a:  0006b797          auipc                   a5,107                  # 0x82b8a
0x00017b8e:  a9e78793          addi                    a5,a5,-1378
0x00017b92:  1efa9063          bne                     s5,a5,480               # 0x17d72

----------------
IN: __libc_calloc
0x00017b96:  8a022783          lw                      a5,-1888(tp)
0x00017b9a:  14078063          beqz                    a5,320                  # 0x17cda

----------------
IN: __libc_calloc
0x00017cda:  9a61              andi                    a2,a2,-8
0x00017cdc:  b5c5              j                       -288                    # 0x17bbc

----------------
IN: __libc_calloc
0x00017bbc:  0009a783          lw                      a5,0(s3)
0x00017bc0:  e399              bnez                    a5,6                    # 0x17bc6

----------------
IN: __libc_calloc
0x00017bc2:  16eb0563          beq                     s6,a4,362               # 0x17d2c

----------------
IN: __libc_calloc
0x00017d2c:  e8ca7de3          bleu                    a2,s4,-358              # 0x17bc6

----------------
IN: __libc_calloc
0x00017bc6:  1661              addi                    a2,a2,-8
0x00017bc8:  47dd              addi                    a5,zero,23
0x00017bca:  18c7f363          bleu                    a2,a5,390               # 0x17d50

----------------
IN: __libc_calloc
0x00017bce:  04f00793          addi                    a5,zero,79
0x00017bd2:  10c7e663          bgtu                    a2,a5,268               # 0x17cde

----------------
IN: __libc_calloc
0x00017cde:  7442              ld                      s0,48(sp)
0x00017ce0:  69e2              ld                      s3,24(sp)
0x00017ce2:  6a42              ld                      s4,16(sp)
0x00017ce4:  6aa2              ld                      s5,8(sp)
0x00017ce6:  6b02              ld                      s6,0(sp)
0x00017ce8:  70e2              ld                      ra,56(sp)
0x00017cea:  7902              ld                      s2,32(sp)
0x00017cec:  8526              mv                      a0,s1
0x00017cee:  74a2              ld                      s1,40(sp)
0x00017cf0:  4581              mv                      a1,zero
0x00017cf2:  6121              addi                    sp,sp,64
0x00017cf4:  28b0006f          j                       2698                    # 0x1877e

----------------
IN: _dl_new_object
0x0002bfe2:  892a              mv                      s2,a0
0x0002bfe4:  14050a63          beqz                    a0,340                  # 0x2c138

----------------
IN: _dl_new_object
0x0002bfe8:  e466              sd                      s9,8(sp)
0x0002bfea:  48050713          addi                    a4,a0,1152
0x0002bfee:  48850793          addi                    a5,a0,1160
0x0002bff2:  001b8c93          addi                    s9,s7,1
0x0002bff6:  85e2              mv                      a1,s8
0x0002bff8:  2ee93423          sd                      a4,744(s2)
0x0002bffc:  02f93c23          sd                      a5,56(s2)

----------------
IN: _dl_new_object
0x0002c000:  8666              mv                      a2,s9
0x0002c002:  4a050513          addi                    a0,a0,1184
0x0002c006:  03293423          sd                      s2,40(s2)
0x0002c00a:  d9cec0ef          jal                     ra,-80484               # 0x185a6

----------------
IN: memcpy
0x0001860a:  177d              addi                    a4,a4,-1
0x0001860c:  87a6              mv                      a5,s1
0x0001860e:  009605b3          add                     a1,a2,s1
0x00018612:  8f05              sub                     a4,a4,s1
0x00018614:  ca11              beqz                    a2,20                   # 0x18628

----------------
IN: _dl_new_object
0x0002c00e:  000acc03          lbu                     s8,0(s5)
0x0002c012:  4785              addi                    a5,zero,1
0x0002c014:  48a93423          sd                      a0,1160(s2)
0x0002c018:  48f92c23          sw                      a5,1176(s2)
0x0002c01c:  8756              mv                      a4,s5
0x0002c01e:  120c0e63          beqz                    s8,316                  # 0x2c15a

----------------
IN: _dl_new_object
0x0002c15a:  01750733          add                     a4,a0,s7
0x0002c15e:  b5d1              j                       -316                    # 0x2c022

----------------
IN: _dl_new_object
0x0002c022:  33495603          lhu                     a2,820(s2)
0x0002c026:  00056797          auipc                   a5,86                   # 0x82026
0x0002c02a:  c727b783          ld                      a5,-910(a5)
0x0002c02e:  439c              lw                      a5,0(a5)
0x0002c030:  003b7b13          andi                    s6,s6,3
0x0002c034:  9a71              andi                    a2,a2,-4
0x0002c036:  01666633          or                      a2,a2,s6
0x0002c03a:  00e93423          sd                      a4,8(s2)
0x0002c03e:  32c91a23          sh                      a2,820(s2)
0x0002c042:  1007f793          andi                    a5,a5,256
0x0002c046:  10078663          beqz                    a5,268                  # 0x2c152

----------------
IN: _dl_new_object
0x0002c152:  4785              addi                    a5,zero,1
0x0002c154:  3ef92623          sw                      a5,1004(s2)
0x0002c158:  bdcd              j                       -270                    # 0x2c04a

----------------
IN: _dl_new_object
0x0002c04a:  00299793          slli                    a5,s3,2
0x0002c04e:  97ce              add                     a5,a5,s3
0x0002c050:  00056717          auipc                   a4,86                   # 0x82050
0x0002c054:  f9873703          ld                      a4,-104(a4)
0x0002c058:  0796              slli                    a5,a5,5
0x0002c05a:  97ba              add                     a5,a5,a4
0x0002c05c:  639c              ld                      a5,0(a5)
0x0002c05e:  577d              addi                    a4,zero,-1
0x0002c060:  37890693          addi                    a3,s2,888
0x0002c064:  44e93823          sd                      a4,1104(s2)
0x0002c068:  4711              addi                    a4,zero,4
0x0002c06a:  2e993c23          sd                      s1,760(s2)
0x0002c06e:  03393823          sd                      s3,48(s2)
0x0002c072:  3ad93023          sd                      a3,928(s2)
0x0002c076:  38e93c23          sd                      a4,920(s2)
0x0002c07a:  10078463          beqz                    a5,264                  # 0x2c182

----------------
IN: _dl_new_object
0x0002c07e:  2d878713          addi                    a4,a5,728
0x0002c082:  36e93c23          sd                      a4,888(s2)
0x0002c086:  0e048a63          beqz                    s1,244                  # 0x2c17a

----------------
IN: _dl_new_object
0x0002c17a:  87ca              mv                      a5,s2
0x0002c17c:  b7e5              j                       -24                     # 0x2c164

----------------
IN: _dl_new_object
0x0002c164:  2d878613          addi                    a2,a5,728
0x0002c168:  f2c70ae3          beq                     a4,a2,-204              # 0x2c09c

----------------
IN: _dl_new_object
0x0002c16c:  008a7a13          andi                    s4,s4,8
0x0002c170:  000a0f63          beqz                    s4,30                   # 0x2c18e

----------------
IN: _dl_new_object
0x0002c18e:  38090693          addi                    a3,s2,896
0x0002c192:  b721              j                       -248                    # 0x2c09a

----------------
IN: _dl_new_object
0x0002c09a:  e290              sd                      a2,0(a3)
0x0002c09c:  2d890793          addi                    a5,s2,728
0x0002c0a0:  3af93423          sd                      a5,936(s2)
0x0002c0a4:  0c0c0d63          beqz                    s8,218                  # 0x2c17e

----------------
IN: _dl_new_object
0x0002c17e:  6ca2              ld                      s9,8(sp)
0x0002c180:  bf65              j                       -72                     # 0x2c138

----------------
IN: _dl_new_object
0x0002c138:  60e6              ld                      ra,88(sp)
0x0002c13a:  6446              ld                      s0,80(sp)
0x0002c13c:  64a6              ld                      s1,72(sp)
0x0002c13e:  79e2              ld                      s3,56(sp)
0x0002c140:  7a42              ld                      s4,48(sp)
0x0002c142:  7aa2              ld                      s5,40(sp)
0x0002c144:  7b02              ld                      s6,32(sp)
0x0002c146:  6be2              ld                      s7,24(sp)
0x0002c148:  6c42              ld                      s8,16(sp)
0x0002c14a:  854a              mv                      a0,s2
0x0002c14c:  6906              ld                      s2,64(sp)
0x0002c14e:  6125              addi                    sp,sp,96
0x0002c150:  8082              ret                     

----------------
IN: _dl_non_dynamic_init
0x0001b096:  84aa              mv                      s1,a0
0x0001b098:  50050463          beqz                    a0,1288                 # 0x1b5a0

----------------
IN: _dl_non_dynamic_init
0x0001b09c:  038b3e03          ld                      t3,56(s6)
0x0001b0a0:  020e3783          ld                      a5,32(t3)
0x0001b0a4:  038e5683          lhu                     a3,56(t3)
0x0001b0a8:  97f2              add                     a5,a5,t3
0x0001b0aa:  2cf53023          sd                      a5,704(a0)
0x0001b0ae:  2cd51823          sh                      a3,720(a0)
0x0001b0b2:  0006871b          sext.w                  a4,a3
0x0001b0b6:  c6ad              beqz                    a3,106                  # 0x1b120

----------------
IN: _dl_non_dynamic_init
0x0001b0b8:  377d              addiw                   a4,a4,-1
0x0001b0ba:  1702              slli                    a4,a4,32
0x0001b0bc:  9301              srli                    a4,a4,32
0x0001b0be:  00371613          slli                    a2,a4,3
0x0001b0c2:  8e19              sub                     a2,a2,a4
0x0001b0c4:  060e              slli                    a2,a2,3
0x0001b0c6:  03878713          addi                    a4,a5,56
0x0001b0ca:  963a              add                     a2,a2,a4
0x0001b0cc:  4509              addi                    a0,zero,2
0x0001b0ce:  4805              addi                    a6,zero,1
0x0001b0d0:  431d              addi                    t1,zero,7
0x0001b0d2:  a809              j                       18                      # 0x1b0e4

----------------
IN: _dl_non_dynamic_init
0x0001b0e4:  4398              lw                      a4,0(a5)
0x0001b0e6:  fea717e3          bne                     a4,a0,-18               # 0x1b0d4

----------------
IN: _dl_non_dynamic_init
0x0001b0d4:  45070f63          beq                     a4,a6,1118              # 0x1b532

----------------
IN: _dl_non_dynamic_init
0x0001b0d8:  58670f63          beq                     a4,t1,1438              # 0x1b676

----------------
IN: _dl_non_dynamic_init
0x0001b0dc:  03878793          addi                    a5,a5,56
0x0001b0e0:  04c78063          beq                     a5,a2,64                # 0x1b120

----------------
IN: _dl_non_dynamic_init
0x0001b532:  6094              ld                      a3,0(s1)
0x0001b534:  6b98              ld                      a4,16(a5)
0x0001b536:  e291              bnez                    a3,4                    # 0x1b53a

----------------
IN: _dl_non_dynamic_init
0x0001b538:  e098              sd                      a4,0(s1)
0x0001b53a:  778c              ld                      a1,40(a5)
0x0001b53c:  3704b683          ld                      a3,880(s1)
0x0001b540:  972e              add                     a4,a4,a1
0x0001b542:  b8d76de3          bgtu                    a3,a4,-1126             # 0x1b0dc

----------------
IN: _dl_non_dynamic_init
0x0001b546:  36e4b823          sd                      a4,880(s1)
0x0001b54a:  be49              j                       -1134                   # 0x1b0dc

----------------
IN: _dl_non_dynamic_init
0x0001b0ea:  43d8              lw                      a4,4(a5)
0x0001b0ec:  3364c683          lbu                     a3,822(s1)
0x0001b0f0:  778c              ld                      a1,40(a5)
0x0001b0f2:  4017571b          sraiw                   a4,a4,1
0x0001b0f6:  00174713          xori                    a4,a4,1
0x0001b0fa:  0107b883          ld                      a7,16(a5)
0x0001b0fe:  8b05              andi                    a4,a4,1
0x0001b100:  0057171b          slliw                   a4,a4,5
0x0001b104:  fdf6f693          andi                    a3,a3,-33
0x0001b108:  8191              srli                    a1,a1,4
0x0001b10a:  8f55              or                      a4,a4,a3
0x0001b10c:  0114b823          sd                      a7,16(s1)
0x0001b110:  2cb49923          sh                      a1,722(s1)
0x0001b114:  32e48b23          sb                      a4,822(s1)
0x0001b118:  03878793          addi                    a5,a5,56
0x0001b11c:  fcc794e3          bne                     a5,a2,-56               # 0x1b0e4

----------------
IN: _dl_non_dynamic_init
0x0001b120:  609c              ld                      a5,0(s1)
0x0001b122:  3704b683          ld                      a3,880(s1)
0x0001b126:  6898              ld                      a4,16(s1)
0x0001b128:  40fe07b3          sub                     a5,t3,a5
0x0001b12c:  96be              add                     a3,a3,a5
0x0001b12e:  973e              add                     a4,a4,a5
0x0001b130:  37c4b423          sd                      t3,872(s1)
0x0001b134:  e09c              sd                      a5,0(s1)
0x0001b136:  36d4b823          sd                      a3,880(s1)
0x0001b13a:  e898              sd                      a4,16(s1)
0x0001b13c:  4e070c63          beqz                    a4,1272                 # 0x1b634

----------------
IN: _dl_non_dynamic_init
0x0001b140:  631c              ld                      a5,0(a4)
0x0001b142:  04048593          addi                    a1,s1,64
0x0001b146:  c3a9              beqz                    a5,66                   # 0x1b188

----------------
IN: _dl_non_dynamic_init
0x0001b148:  70000537          lui                     a0,458752
0x0001b14c:  70000e37          lui                     t3,458752
0x0001b150:  700008b7          lui                     a7,458752
0x0001b154:  02500613          addi                    a2,zero,37
0x0001b158:  157d              addi                    a0,a0,-1
0x0001b15a:  483d              addi                    a6,zero,15
0x0001b15c:  5ef1              addi                    t4,zero,-4
0x0001b15e:  dffe0e13          addi                    t3,t3,-513
0x0001b162:  4fad              addi                    t6,zero,11
0x0001b164:  03500f13          addi                    t5,zero,53
0x0001b168:  02588893          addi                    a7,a7,37
0x0001b16c:  00f67863          bleu                    a5,a2,16                # 0x1b17c

----------------
IN: _dl_non_dynamic_init
0x0001b17c:  078e              slli                    a5,a5,3
0x0001b17e:  97ae              add                     a5,a5,a1
0x0001b180:  e398              sd                      a4,0(a5)
0x0001b182:  6b1c              ld                      a5,16(a4)
0x0001b184:  0741              addi                    a4,a4,16
0x0001b186:  f3fd              bnez                    a5,-26                  # 0x1b16c

----------------
IN: _dl_non_dynamic_init
0x0001b16c:  00f67863          bleu                    a5,a2,16                # 0x1b17c

----------------
IN: _dl_non_dynamic_init
0x0001b170:  40f506b3          sub                     a3,a0,a5
0x0001b174:  3ed86f63          bgtu                    a3,a6,1022              # 0x1b572

----------------
IN: _dl_non_dynamic_init
0x0001b572:  0017969b          slliw                   a3,a5,1
0x0001b576:  4016d31b          sraiw                   t1,a3,1
0x0001b57a:  006ef863          bleu                    t1,t4,16                # 0x1b58a

----------------
IN: _dl_non_dynamic_init
0x0001b58a:  40fe06b3          sub                     a3,t3,a5
0x0001b58e:  02dfec63          bgtu                    a3,t6,56                # 0x1b5c6

----------------
IN: _dl_non_dynamic_init
0x0001b5c6:  700006b7          lui                     a3,458752
0x0001b5ca:  eff68693          addi                    a3,a3,-257
0x0001b5ce:  8e9d              sub                     a3,a3,a5
0x0001b5d0:  4329              addi                    t1,zero,10
0x0001b5d2:  bad368e3          bgtu                    a3,t1,-1104             # 0x1b182

----------------
IN: _dl_non_dynamic_init
0x0001b5d6:  700006b7          lui                     a3,458752
0x0001b5da:  f4468693          addi                    a3,a3,-188
0x0001b5de:  40f687b3          sub                     a5,a3,a5
0x0001b5e2:  be69              j                       -1126                   # 0x1b17c

----------------
IN: _dl_non_dynamic_init
0x0001b178:  40f887b3          sub                     a5,a7,a5
0x0001b17c:  078e              slli                    a5,a5,3
0x0001b17e:  97ae              add                     a5,a5,a1
0x0001b180:  e398              sd                      a4,0(a5)
0x0001b182:  6b1c              ld                      a5,16(a4)
0x0001b184:  0741              addi                    a4,a4,16
0x0001b186:  f3fd              bnez                    a5,-26                  # 0x1b16c

----------------
IN: _dl_non_dynamic_init
0x0001b188:  70fc              ld                      a5,224(s1)
0x0001b18a:  c789              beqz                    a5,10                   # 0x1b194

----------------
IN: _dl_non_dynamic_init
0x0001b194:  7cbc              ld                      a5,120(s1)
0x0001b196:  c791              beqz                    a5,12                   # 0x1b1a2

----------------
IN: _dl_non_dynamic_init
0x0001b198:  64d8              ld                      a4,136(s1)
0x0001b19a:  47e1              addi                    a5,zero,24
0x0001b19c:  6718              ld                      a4,8(a4)
0x0001b19e:  54f71763          bne                     a4,a5,1358              # 0x1b6ec

----------------
IN: _dl_non_dynamic_init
0x0001b1a2:  1604b783          ld                      a5,352(s1)
0x0001b1a6:  c799              beqz                    a5,14                   # 0x1b1b4

----------------
IN: _dl_non_dynamic_init
0x0001b1b4:  1304b703          ld                      a4,304(s1)
0x0001b1b8:  f062              sd                      s8,32(sp)
0x0001b1ba:  c305              beqz                    a4,32                   # 0x1b1da

----------------
IN: _dl_non_dynamic_init
0x0001b1da:  1904b783          ld                      a5,400(s1)
0x0001b1de:  c785              beqz                    a5,40                   # 0x1b206

----------------
IN: _dl_non_dynamic_init
0x0001b206:  1284b783          ld                      a5,296(s1)
0x0001b20a:  c399              beqz                    a5,6                    # 0x1b210

----------------
IN: _dl_non_dynamic_init
0x0001b210:  8526              mv                      a0,s1
0x0001b212:  5fc120ef          jal                     ra,75260                # 0x2d80e

----------------
IN: _dl_setup_hash
0x0002d80e:  2b853783          ld                      a5,696(a0)
0x0002d812:  cba9              beqz                    a5,82                   # 0x2d864

----------------
IN: _dl_setup_hash
0x0002d814:  6798              ld                      a4,8(a5)
0x0002d816:  611c              ld                      a5,0(a0)
0x0002d818:  973e              add                     a4,a4,a5
0x0002d81a:  4314              lw                      a3,0(a4)
0x0002d81c:  30d52623          sw                      a3,780(a0)
0x0002d820:  471c              lw                      a5,8(a4)
0x0002d822:  434c              lw                      a1,4(a4)
0x0002d824:  fff7881b          addiw                   a6,a5,-1
0x0002d828:  0107f633          and                     a2,a5,a6
0x0002d82c:  2601              sext.w                  a2,a2
0x0002d82e:  ee31              bnez                    a2,92                   # 0x2d88a

----------------
IN: _dl_setup_hash
0x0002d830:  0017979b          slliw                   a5,a5,1
0x0002d834:  1782              slli                    a5,a5,32
0x0002d836:  1682              slli                    a3,a3,32
0x0002d838:  1582              slli                    a1,a1,32
0x0002d83a:  31052823          sw                      a6,784(a0)
0x0002d83e:  9381              srli                    a5,a5,32
0x0002d840:  9281              srli                    a3,a3,32
0x0002d842:  9181              srli                    a1,a1,32
0x0002d844:  4750              lw                      a2,12(a4)
0x0002d846:  078a              slli                    a5,a5,2
0x0002d848:  0741              addi                    a4,a4,16
0x0002d84a:  8e8d              sub                     a3,a3,a1
0x0002d84c:  97ba              add                     a5,a5,a4
0x0002d84e:  068a              slli                    a3,a3,2
0x0002d850:  96be              add                     a3,a3,a5
0x0002d852:  30c52a23          sw                      a2,788(a0)
0x0002d856:  30e53c23          sd                      a4,792(a0)
0x0002d85a:  32f53023          sd                      a5,800(a0)
0x0002d85e:  32d53423          sd                      a3,808(a0)
0x0002d862:  8082              ret                     

----------------
IN: _dl_non_dynamic_init
0x0001b216:  3344d783          lhu                     a5,820(s1)
0x0001b21a:  3a84b703          ld                      a4,936(s1)
0x0001b21e:  78d0              ld                      a2,176(s1)
0x0001b220:  4685              addi                    a3,zero,1
0x0001b222:  0087e793          ori                     a5,a5,8
0x0001b226:  32f49a23          sh                      a5,820(s1)
0x0001b22a:  3ed4a623          sw                      a3,1004(s1)
0x0001b22e:  02848793          addi                    a5,s1,40
0x0001b232:  c714              sw                      a3,8(a4)
0x0001b234:  e31c              sd                      a5,0(a4)
0x0001b236:  ca11              beqz                    a2,20                   # 0x1b24a

----------------
IN: _dl_non_dynamic_init
0x0001b238:  74bc              ld                      a5,104(s1)
0x0001b23a:  6610              ld                      a2,8(a2)
0x0001b23c:  6094              ld                      a3,0(s1)
0x0001b23e:  679c              ld                      a5,8(a5)
0x0001b240:  7c98              ld                      a4,56(s1)
0x0001b242:  97b2              add                     a5,a5,a2
0x0001b244:  97b6              add                     a5,a5,a3
0x0001b246:  e31c              sd                      a5,0(a4)
0x0001b248:  e49c              sd                      a5,8(s1)
0x0001b24a:  4581              mv                      a1,zero
0x0001b24c:  8526              mv                      a0,s1
0x0001b24e:  4df100ef          jal                     ra,68830                # 0x2bf2c

----------------
IN: _dl_add_to_namespace_list
0x0002bf2c:  1101              addi                    sp,sp,-32
0x0002bf2e:  e822              sd                      s0,16(sp)
0x0002bf30:  e426              sd                      s1,8(sp)
0x0002bf32:  e04a              sd                      s2,0(sp)
0x0002bf34:  ec06              sd                      ra,24(sp)
0x0002bf36:  1000              addi                    s0,sp,32
0x0002bf38:  892a              mv                      s2,a0
0x0002bf3a:  00056517          auipc                   a0,86                   # 0x81f3a
0x0002bf3e:  04e53503          ld                      a0,78(a0)
0x0002bf42:  84ae              mv                      s1,a1
0x0002bf44:  8b4f80ef          jal                     ra,-32588               # 0x23ff8

----------------
IN: ___pthread_mutex_lock
0x00023ff8:  01050793          addi                    a5,a0,16
0x00023ffc:  439c              lw                      a5,0(a5)

----------------
IN: ___pthread_mutex_lock
0x00023ffe:  07c7f713          andi                    a4,a5,124

----------------
IN: ___pthread_mutex_lock
0x00024002:  e325              bnez                    a4,96                   # 0x24062

----------------
IN: ___pthread_mutex_lock
0x00024004:  1101              addi                    sp,sp,-32
0x00024006:  e822              sd                      s0,16(sp)
0x00024008:  e426              sd                      s1,8(sp)
0x0002400a:  ec06              sd                      ra,24(sp)
0x0002400c:  1000              addi                    s0,sp,32
0x0002400e:  17f7f793          andi                    a5,a5,383
0x00024012:  84aa              mv                      s1,a0
0x00024014:  eba1              bnez                    a5,80                   # 0x24064

----------------
IN: ___pthread_mutex_lock
0x00024064:  01050793          addi                    a5,a0,16
0x00024068:  439c              lw                      a5,0(a5)
0x0002406a:  4705              addi                    a4,zero,1
0x0002406c:  07f7f793          andi                    a5,a5,127
0x00024070:  06e79363          bne                     a5,a4,102               # 0x240d6

----------------
IN: ___pthread_mutex_lock
0x00024074:  4518              lw                      a4,8(a0)
0x00024076:  97022683          lw                      a3,-1680(tp)
0x0002407a:  00d71d63          bne                     a4,a3,26                # 0x24094

----------------
IN: ___pthread_mutex_lock
0x00024094:  01050693          addi                    a3,a0,16
0x00024098:  428c              lw                      a1,0(a3)
0x0002409a:  0805f593          andi                    a1,a1,128
0x0002409e:  ed81              bnez                    a1,24                   # 0x240b6

----------------
IN: ___pthread_mutex_lock
0x000240a0:  8a022683          lw                      a3,-1888(tp)
0x000240a4:  ea89              bnez                    a3,18                   # 0x240b6

----------------
IN: ___pthread_mutex_lock
0x000240a6:  4114              lw                      a3,0(a0)
0x000240a8:  e699              bnez                    a3,14                   # 0x240b6

----------------
IN: ___pthread_mutex_lock
0x000240aa:  c11c              sw                      a5,0(a0)
0x000240ac:  12071b63          bnez                    a4,310                  # 0x241e2

----------------
IN: ___pthread_mutex_lock
0x000240b0:  4785              addi                    a5,zero,1
0x000240b2:  c0dc              sw                      a5,4(s1)
0x000240b4:  b759              j                       -122                    # 0x2403a

----------------
IN: ___pthread_mutex_lock
0x0002403a:  44dc              lw                      a5,12(s1)
0x0002403c:  97022703          lw                      a4,-1680(tp)
0x00024040:  2785              addiw                   a5,a5,1
0x00024042:  c498              sw                      a4,8(s1)
0x00024044:  c4dc              sw                      a5,12(s1)
0x00024046:  4501              mv                      a0,zero
0x00024048:  60e2              ld                      ra,24(sp)
0x0002404a:  6442              ld                      s0,16(sp)
0x0002404c:  64a2              ld                      s1,8(sp)
0x0002404e:  6105              addi                    sp,sp,32
0x00024050:  8082              ret                     

----------------
IN: _dl_add_to_namespace_list
0x0002bf48:  00249693          slli                    a3,s1,2
0x0002bf4c:  00968733          add                     a4,a3,s1
0x0002bf50:  00056617          auipc                   a2,86                   # 0x81f50
0x0002bf54:  09863603          ld                      a2,152(a2)
0x0002bf58:  0716              slli                    a4,a4,5
0x0002bf5a:  9732              add                     a4,a4,a2
0x0002bf5c:  631c              ld                      a5,0(a4)
0x0002bf5e:  c7a1              beqz                    a5,72                   # 0x2bfa6

----------------
IN: _dl_add_to_namespace_list
0x0002bf60:  873e              mv                      a4,a5
0x0002bf62:  6f9c              ld                      a5,24(a5)
0x0002bf64:  fff5              bnez                    a5,-4                   # 0x2bf60

----------------
IN: _dl_add_to_namespace_list
0x0002bf66:  02e93023          sd                      a4,32(s2)
0x0002bf6a:  01273c23          sd                      s2,24(a4)
0x0002bf6e:  96a6              add                     a3,a3,s1
0x0002bf70:  0696              slli                    a3,a3,5
0x0002bf72:  00d607b3          add                     a5,a2,a3
0x0002bf76:  4798              lw                      a4,8(a5)
0x0002bf78:  00056697          auipc                   a3,86                   # 0x81f78
0x0002bf7c:  d386b683          ld                      a3,-712(a3)
0x0002bf80:  6290              ld                      a2,0(a3)
0x0002bf82:  2705              addiw                   a4,a4,1
0x0002bf84:  c798              sw                      a4,8(a5)
0x0002bf86:  6442              ld                      s0,16(sp)
0x0002bf88:  60e2              ld                      ra,24(sp)
0x0002bf8a:  64a2              ld                      s1,8(sp)
0x0002bf8c:  46c93c23          sd                      a2,1144(s2)
0x0002bf90:  00160793          addi                    a5,a2,1
0x0002bf94:  6902              ld                      s2,0(sp)
0x0002bf96:  e29c              sd                      a5,0(a3)
0x0002bf98:  00056517          auipc                   a0,86                   # 0x81f98
0x0002bf9c:  ff053503          ld                      a0,-16(a0)
0x0002bfa0:  6105              addi                    sp,sp,32
0x0002bfa2:  ed6f806f          j                       -31018                  # 0x24678

----------------
IN: __pthread_mutex_unlock
0x00024678:  1141              addi                    sp,sp,-16
0x0002467a:  e422              sd                      s0,8(sp)
0x0002467c:  0800              addi                    s0,sp,16
0x0002467e:  6422              ld                      s0,8(sp)
0x00024680:  4585              addi                    a1,zero,1
0x00024682:  0141              addi                    sp,sp,16
0x00024684:  bddd              j                       -266                    # 0x2457a

----------------
IN: __pthread_mutex_unlock_usercnt
0x0002457a:  01050713          addi                    a4,a0,16
0x0002457e:  4318              lw                      a4,0(a4)
0x00024580:  07c77813          andi                    a6,a4,124
0x00024584:  04081d63          bnez                    a6,90                   # 0x245de

----------------
IN: __pthread_mutex_unlock_usercnt
0x00024588:  1141              addi                    sp,sp,-16
0x0002458a:  e022              sd                      s0,0(sp)
0x0002458c:  e406              sd                      ra,8(sp)
0x0002458e:  0800              addi                    s0,sp,16
0x00024590:  17f77713          andi                    a4,a4,383
0x00024594:  87aa              mv                      a5,a0
0x00024596:  86ae              mv                      a3,a1
0x00024598:  e721              bnez                    a4,72                   # 0x245e0

----------------
IN: __pthread_mutex_unlock_usercnt
0x000245e0:  10000593          addi                    a1,zero,256
0x000245e4:  02b71163          bne                     a4,a1,34                # 0x24606

----------------
IN: __pthread_mutex_unlock_usercnt
0x00024606:  01050613          addi                    a2,a0,16
0x0002460a:  4210              lw                      a2,0(a2)
0x0002460c:  4585              addi                    a1,zero,1
0x0002460e:  07f67613          andi                    a2,a2,127
0x00024612:  00b61f63          bne                     a2,a1,30                # 0x24630

----------------
IN: __pthread_mutex_unlock_usercnt
0x00024616:  4510              lw                      a2,8(a0)
0x00024618:  97022703          lw                      a4,-1680(tp)
0x0002461c:  00e60463          beq                     a2,a4,8                 # 0x24624

----------------
IN: __pthread_mutex_unlock_usercnt
0x00024624:  4158              lw                      a4,4(a0)
0x00024626:  fff7061b          addiw                   a2,a4,-1
0x0002462a:  c3d0              sw                      a2,4(a5)
0x0002462c:  f649              bnez                    a2,-118                 # 0x245b6

----------------
IN: __pthread_mutex_unlock_usercnt
0x0002462e:  b7b5              j                       -148                    # 0x2459a

----------------
IN: __pthread_mutex_unlock_usercnt
0x0002459a:  0007a423          sw                      zero,8(a5)
0x0002459e:  ee85              bnez                    a3,56                   # 0x245d6

----------------
IN: __pthread_mutex_unlock_usercnt
0x000245d6:  47d8              lw                      a4,12(a5)
0x000245d8:  377d              addiw                   a4,a4,-1
0x000245da:  c7d8              sw                      a4,12(a5)
0x000245dc:  b7d1              j                       -60                     # 0x245a0

----------------
IN: __pthread_mutex_unlock_usercnt
0x000245a0:  01078713          addi                    a4,a5,16
0x000245a4:  430c              lw                      a1,0(a4)
0x000245a6:  0805f593          andi                    a1,a1,128
0x000245aa:  e999              bnez                    a1,22                   # 0x245c0

----------------
IN: __pthread_mutex_unlock_usercnt
0x000245ac:  8a022703          lw                      a4,-1888(tp)
0x000245b0:  eb01              bnez                    a4,16                   # 0x245c0

----------------
IN: __pthread_mutex_unlock_usercnt
0x000245b2:  0007a023          sw                      zero,0(a5)
0x000245b6:  4501              mv                      a0,zero
0x000245b8:  60a2              ld                      ra,8(sp)
0x000245ba:  6402              ld                      s0,0(sp)
0x000245bc:  0141              addi                    sp,sp,16
0x000245be:  8082              ret                     

----------------
IN: _dl_non_dynamic_init
0x0001b252:  4785              addi                    a5,zero,1
0x0001b254:  00068717          auipc                   a4,104                  # 0x83254
0x0001b258:  c8f73223          sd                      a5,-892(a4)
0x0001b25c:  049b3c23          sd                      s1,88(s6)
0x0001b260:  f9040c13          addi                    s8,s0,-112
0x0001b264:  f8043c23          sd                      zero,-104(s0)
0x0001b268:  00063717          auipc                   a4,99                   # 0x7e268
0x0001b26c:  15070713          addi                    a4,a4,336
0x0001b270:  02000313          addi                    t1,zero,32
0x0001b274:  f9840b93          addi                    s7,s0,-104
0x0001b278:  4881              mv                      a7,zero
0x0001b27a:  4801              mv                      a6,zero
0x0001b27c:  4781              mv                      a5,zero
0x0001b27e:  3a848693          addi                    a3,s1,936
0x0001b282:  8662              mv                      a2,s8
0x0001b284:  85a6              mv                      a1,s1
0x0001b286:  00039517          auipc                   a0,57                   # 0x54286
0x0001b28a:  72250513          addi                    a0,a0,1826
0x0001b28e:  fa043023          sd                      zero,-96(s0)
0x0001b292:  fa043423          sd                      zero,-88(s0)
0x0001b296:  f8640e23          sb                      t1,-100(s0)
0x0001b29a:  f9743823          sd                      s7,-112(s0)
0x0001b29e:  240100ef          jal                     ra,66112                # 0x2b4de

----------------
IN: _dl_lookup_symbol_x
0x0002b4de:  7151              addi                    sp,sp,-240
0x0002b4e0:  f1a2              sd                      s0,224(sp)
0x0002b4e2:  eda6              sd                      s1,216(sp)
0x0002b4e4:  1980              addi                    s0,sp,240
0x0002b4e6:  e9ca              sd                      s2,208(sp)
0x0002b4e8:  e5ce              sd                      s3,200(sp)
0x0002b4ea:  e1d2              sd                      s4,192(sp)
0x0002b4ec:  fd56              sd                      s5,184(sp)
0x0002b4ee:  f95a              sd                      s6,176(sp)
0x0002b4f0:  f55e              sd                      s7,168(sp)
0x0002b4f2:  f586              sd                      ra,232(sp)
0x0002b4f4:  e96a              sd                      s10,144(sp)
0x0002b4f6:  e56e              sd                      s11,136(sp)
0x0002b4f8:  8bbe              mv                      s7,a5
0x0002b4fa:  57fd              addi                    a5,zero,-1
0x0002b4fc:  9381              srli                    a5,a5,32
0x0002b4fe:  84aa              mv                      s1,a0
0x0002b500:  8b2e              mv                      s6,a1
0x0002b502:  8932              mv                      s2,a2
0x0002b504:  f4d43823          sd                      a3,-176(s0)
0x0002b508:  8a3a              mv                      s4,a4
0x0002b50a:  8ac2              mv                      s5,a6
0x0002b50c:  89c6              mv                      s3,a7
0x0002b50e:  f4f43423          sd                      a5,-184(s0)
0x0002b512:  0004c703          lbu                     a4,0(s1)
0x0002b516:  6d05              lui                     s10,1
0x0002b518:  22070463          beqz                    a4,552                  # 0x2b740

----------------
IN: _dl_lookup_symbol_x
0x0002b51c:  86a6              mv                      a3,s1
0x0002b51e:  505d0d13          addi                    s10,s10,1285
0x0002b522:  0016c783          lbu                     a5,1(a3)
0x0002b526:  863e              mv                      a2,a5
0x0002b528:  16078863          beqz                    a5,368                  # 0x2b698

----------------
IN: _dl_lookup_symbol_x
0x0002b52c:  004d179b          slliw                   a5,s10,4
0x0002b530:  01a787bb          addw                    a5,a5,s10
0x0002b534:  0067979b          slliw                   a5,a5,6
0x0002b538:  01a787bb          addw                    a5,a5,s10
0x0002b53c:  0057159b          slliw                   a1,a4,5
0x0002b540:  9fad              addw                    a5,a5,a1
0x0002b542:  0689              addi                    a3,a3,2
0x0002b544:  9fb9              addw                    a5,a5,a4
0x0002b546:  0006c703          lbu                     a4,0(a3)
0x0002b54a:  00c78d3b          addw                    s10,a5,a2
0x0002b54e:  fb71              bnez                    a4,-44                  # 0x2b522

----------------
IN: _dl_lookup_symbol_x
0x0002b522:  0016c783          lbu                     a5,1(a3)
0x0002b526:  863e              mv                      a2,a5
0x0002b528:  16078863          beqz                    a5,368                  # 0x2b698

----------------
IN: _dl_lookup_symbol_x
0x0002b550:  f4843783          ld                      a5,-184(s0)
0x0002b554:  f6043423          sd                      zero,-152(s0)
0x0002b558:  f6043823          sd                      zero,-144(s0)
0x0002b55c:  f6f43023          sd                      a5,-160(s0)
0x0002b560:  000a0663          beqz                    s4,12                   # 0x2b56c

----------------
IN: _dl_lookup_symbol_x
0x0002b564:  002af793          andi                    a5,s5,2
0x0002b568:  60079a63          bnez                    a5,1556                 # 0x2bb7c

----------------
IN: _dl_lookup_symbol_x
0x0002b56c:  f5043783          ld                      a5,-176(s0)
0x0002b570:  639c              ld                      a5,0(a5)
0x0002b572:  1a099463          bnez                    s3,424                  # 0x2b71a

----------------
IN: _dl_lookup_symbol_x
0x0002b576:  24078863          beqz                    a5,592                  # 0x2b7c6

----------------
IN: _dl_lookup_symbol_x
0x0002b57a:  f162              sd                      s8,160(sp)
0x0002b57c:  ed66              sd                      s9,152(sp)
0x0002b57e:  f4043c23          sd                      zero,-168(s0)
0x0002b582:  f5843803          ld                      a6,-168(s0)
0x0002b586:  f5043d83          ld                      s11,-176(s0)
0x0002b58a:  f6840c93          addi                    s9,s0,-152
0x0002b58e:  f6040c13          addi                    s8,s0,-160
0x0002b592:  a031              j                       12                      # 0x2b59e

----------------
IN: _dl_lookup_symbol_x
0x0002b59e:  00093683          ld                      a3,0(s2)
0x0002b5a2:  88d2              mv                      a7,s4
0x0002b5a4:  ec5a              sd                      s6,24(sp)
0x0002b5a6:  e85e              sd                      s7,16(sp)
0x0002b5a8:  e44e              sd                      s3,8(sp)
0x0002b5aa:  e056              sd                      s5,0(sp)
0x0002b5ac:  8766              mv                      a4,s9
0x0002b5ae:  8662              mv                      a2,s8
0x0002b5b0:  85ea              mv                      a1,s10
0x0002b5b2:  8526              mv                      a0,s1
0x0002b5b4:  deaff0ef          jal                     ra,-2582                # 0x2ab9e

----------------
IN: do_lookup_x
0x0002ab9e:  716d              addi                    sp,sp,-272
0x0002aba0:  e222              sd                      s0,256(sp)
0x0002aba2:  f9ca              sd                      s2,240(sp)
0x0002aba4:  0a00              addi                    s0,sp,272
0x0002aba6:  e9da              sd                      s6,208(sp)
0x0002aba8:  e606              sd                      ra,264(sp)
0x0002abaa:  fda6              sd                      s1,248(sp)
0x0002abac:  f1d2              sd                      s4,224(sp)
0x0002abae:  e5de              sd                      s7,200(sp)
0x0002abb0:  e1e2              sd                      s8,192(sp)
0x0002abb2:  fd66              sd                      s9,184(sp)
0x0002abb4:  f56e              sd                      s11,168(sp)
0x0002abb6:  0087e303          lwu                     t1,8(a5)
0x0002abba:  f6d43c23          sd                      a3,-136(s0)
0x0002abbe:  4014              lw                      a3,0(s0)
0x0002abc0:  f4e43c23          sd                      a4,-168(s0)
0x0002abc4:  00843e03          ld                      t3,8(s0)
0x0002abc8:  8742              mv                      a4,a6
0x0002abca:  01042b03          lw                      s6,16(s0)
0x0002abce:  01843f03          ld                      t5,24(s0)
0x0002abd2:  892a              mv                      s2,a0
0x0002abd4:  82ae              mv                      t0,a1
0x0002abd6:  f4c43823          sd                      a2,-176(s0)
0x0002abda:  f7143023          sd                      a7,-160(s0)
0x0002abde:  f6d43423          sd                      a3,-152(s0)
0x0002abe2:  881a              mv                      a6,t1
0x0002abe4:  0007b303          ld                      t1,0(a5)
0x0002abe8:  03f5fd93          andi                    s11,a1,63
0x0002abec:  00371793          slli                    a5,a4,3
0x0002abf0:  933e              add                     t1,t1,a5
0x0002abf2:  0065d39b          srliw                   t2,a1,6
0x0002abf6:  87ee              mv                      a5,s11
0x0002abf8:  8bba              mv                      s7,a4
0x0002abfa:  8df2              mv                      s11,t3
0x0002abfc:  002b7e93          andi                    t4,s6,2
0x0002ac00:  00057a17          auipc                   s4,87                   # 0x81c00
0x0002ac04:  098a3a03          ld                      s4,152(s4)
0x0002ac08:  4c05              addi                    s8,zero,1
0x0002ac0a:  8c9e              mv                      s9,t2
0x0002ac0c:  8f9a              mv                      t6,t1
0x0002ac0e:  f7643823          sd                      s6,-144(s0)
0x0002ac12:  8742              mv                      a4,a6
0x0002ac14:  8e3e              mv                      t3,a5
0x0002ac16:  a899              j                       86                      # 0x2ac6c

----------------
IN: do_lookup_x
0x0002ac6c:  000fb783          ld                      a5,0(t6)
0x0002ac70:  7784              ld                      s1,40(a5)
0x0002ac72:  ffb489e3          beq                     s1,s11,-14              # 0x2ac64

----------------
IN: do_lookup_x
0x0002ac76:  000e8663          beqz                    t4,12                   # 0x2ac82

----------------
IN: do_lookup_x
0x0002ac82:  3364c783          lbu                     a5,822(s1)
0x0002ac86:  8b91              andi                    a5,a5,4
0x0002ac88:  c799              beqz                    a5,14                   # 0x2ac96

----------------
IN: do_lookup_x
0x0002ac96:  000a2783          lw                      a5,0(s4)
0x0002ac9a:  8ba1              andi                    a5,a5,8
0x0002ac9c:  dfb5              beqz                    a5,-132                 # 0x2ac18

----------------
IN: do_lookup_x
0x0002ac18:  30c4a583          lw                      a1,780(s1)
0x0002ac1c:  c5a1              beqz                    a1,72                   # 0x2ac64

----------------
IN: do_lookup_x
0x0002ac1e:  78b4              ld                      a3,112(s1)
0x0002ac20:  74bc              ld                      a5,104(s1)
0x0002ac22:  0004b883          ld                      a7,0(s1)
0x0002ac26:  6694              ld                      a3,8(a3)
0x0002ac28:  679c              ld                      a5,8(a5)
0x0002ac2a:  3184b503          ld                      a0,792(s1)
0x0002ac2e:  f8042223          sw                      zero,-124(s0)
0x0002ac32:  f8043423          sd                      zero,-120(s0)
0x0002ac36:  00d88b33          add                     s6,a7,a3
0x0002ac3a:  98be              add                     a7,a7,a5
0x0002ac3c:  c171              beqz                    a0,196                  # 0x2ad00

----------------
IN: do_lookup_x
0x0002ac3e:  3104a603          lw                      a2,784(s1)
0x0002ac42:  3144a783          lw                      a5,788(s1)
0x0002ac46:  01967633          and                     a2,a2,s9
0x0002ac4a:  060e              slli                    a2,a2,3
0x0002ac4c:  9532              add                     a0,a0,a2
0x0002ac4e:  6110              ld                      a2,0(a0)
0x0002ac50:  00f2d7bb          srlw                    a5,t0,a5
0x0002ac54:  00f657b3          srl                     a5,a2,a5
0x0002ac58:  01c65633          srl                     a2,a2,t3
0x0002ac5c:  8ff1              and                     a5,a5,a2
0x0002ac5e:  8b85              andi                    a5,a5,1
0x0002ac60:  20079363          bnez                    a5,518                  # 0x2ae66

----------------
IN: do_lookup_x
0x0002ae66:  02b2f5bb          remuw                   a1,t0,a1
0x0002ae6a:  3204b783          ld                      a5,800(s1)
0x0002ae6e:  02059613          slli                    a2,a1,32
0x0002ae72:  01e65593          srli                    a1,a2,30
0x0002ae76:  97ae              add                     a5,a5,a1
0x0002ae78:  439c              lw                      a5,0(a5)
0x0002ae7a:  de0785e3          beqz                    a5,-534                 # 0x2ac64

----------------
IN: do_lookup_x
0x0002ae7e:  3284b303          ld                      t1,808(s1)
0x0002ae82:  02079613          slli                    a2,a5,32
0x0002ae86:  01e65793          srli                    a5,a2,30
0x0002ae8a:  f5ce              sd                      s3,232(sp)
0x0002ae8c:  00f309b3          add                     s3,t1,a5
0x0002ae90:  57fd              addi                    a5,zero,-1
0x0002ae92:  9381              srli                    a5,a5,32
0x0002ae94:  edd6              sd                      s5,216(sp)
0x0002ae96:  f96a              sd                      s10,176(sp)
0x0002ae98:  f5943023          sd                      s9,-192(s0)
0x0002ae9c:  f3743823          sd                      s7,-208(s0)
0x0002aea0:  f4f43423          sd                      a5,-184(s0)
0x0002aea4:  8bce              mv                      s7,s3
0x0002aea6:  f8440a93          addi                    s5,s0,-124
0x0002aeaa:  f8840d13          addi                    s10,s0,-120
0x0002aeae:  f3f43c23          sd                      t6,-200(s0)
0x0002aeb2:  8c96              mv                      s9,t0
0x0002aeb4:  89c6              mv                      s3,a7
0x0002aeb6:  01e43c23          sd                      t5,24(s0)
0x0002aeba:  f2e43423          sd                      a4,-216(s0)
0x0002aebe:  f3d43023          sd                      t4,-224(s0)
0x0002aec2:  f1c43c23          sd                      t3,-232(s0)
0x0002aec6:  a029              j                       10                      # 0x2aed0

----------------
IN: do_lookup_x
0x0002aed0:  000ba783          lw                      a5,0(s7)
0x0002aed4:  0197c733          xor                     a4,a5,s9
0x0002aed8:  0017571b          srliw                   a4,a4,1
0x0002aedc:  f775              bnez                    a4,-20                  # 0x2aec8

----------------
IN: do_lookup_x
0x0002aec8:  8b85              andi                    a5,a5,1
0x0002aeca:  0b91              addi                    s7,s7,4
0x0002aecc:  34079c63          bnez                    a5,856                  # 0x2b224

----------------
IN: do_lookup_x
0x0002aede:  3284b803          ld                      a6,808(s1)
0x0002aee2:  f4843783          ld                      a5,-184(s0)
0x0002aee6:  f6843683          ld                      a3,-152(s0)
0x0002aeea:  410b8833          sub                     a6,s7,a6
0x0002aeee:  40285813          srai                    a6,a6,2
0x0002aef2:  00f87733          and                     a4,a6,a5
0x0002aef6:  00171793          slli                    a5,a4,1
0x0002aefa:  97ba              add                     a5,a5,a4
0x0002aefc:  f6043603          ld                      a2,-160(s0)
0x0002af00:  f7043703          ld                      a4,-144(s0)
0x0002af04:  f7843583          ld                      a1,-136(s0)
0x0002af08:  078e              slli                    a5,a5,3
0x0002af0a:  88ce              mv                      a7,s3
0x0002af0c:  e856              sd                      s5,16(sp)
0x0002af0e:  e46a              sd                      s10,8(sp)
0x0002af10:  e026              sd                      s1,0(sp)
0x0002af12:  2801              sext.w                  a6,a6
0x0002af14:  97da              add                     a5,a5,s6
0x0002af16:  854a              mv                      a0,s2
0x0002af18:  b1fff0ef          jal                     ra,-1250                # 0x2aa36

----------------
IN: check_match
0x0002aa36:  7139              addi                    sp,sp,-64
0x0002aa38:  f822              sd                      s0,48(sp)
0x0002aa3a:  f426              sd                      s1,40(sp)
0x0002aa3c:  f04a              sd                      s2,32(sp)
0x0002aa3e:  ec4e              sd                      s3,24(sp)
0x0002aa40:  e852              sd                      s4,16(sp)
0x0002aa42:  e456              sd                      s5,8(sp)
0x0002aa44:  fc06              sd                      ra,56(sp)
0x0002aa46:  0080              addi                    s0,sp,64
0x0002aa48:  0047c303          lbu                     t1,4(a5)
0x0002aa4c:  0087be83          ld                      t4,8(a5)
0x0002aa50:  8ab6              mv                      s5,a3
0x0002aa52:  00f37693          andi                    a3,t1,15
0x0002aa56:  84be              mv                      s1,a5
0x0002aa58:  00043903          ld                      s2,0(s0)
0x0002aa5c:  0067d783          lhu                     a5,6(a5)
0x0002aa60:  8e2e              mv                      t3,a1
0x0002aa62:  8a32              mv                      s4,a2
0x0002aa64:  89c2              mv                      s3,a6
0x0002aa66:  8336              mv                      t1,a3
0x0002aa68:  0e0e8563          beqz                    t4,234                  # 0x2ab52

----------------
IN: check_match
0x0002aa6c:  0017b793          seqz                    a5,a5
0x0002aa70:  8f7d              and                     a4,a4,a5
0x0002aa72:  e779              bnez                    a4,206                  # 0x2ab40

----------------
IN: check_match
0x0002aa74:  b9800793          addi                    a5,zero,-1128
0x0002aa78:  4067d7bb          sraw                    a5,a5,t1
0x0002aa7c:  8b85              andi                    a5,a5,1
0x0002aa7e:  e3e9              bnez                    a5,194                  # 0x2ab40

----------------
IN: check_match
0x0002aa80:  01c48a63          beq                     s1,t3,20                # 0x2aa94

----------------
IN: check_match
0x0002aa84:  0004e783          lwu                     a5,0(s1)
0x0002aa88:  85aa              mv                      a1,a0
0x0002aa8a:  00f88533          add                     a0,a7,a5
0x0002aa8e:  f5efa0ef          jal                     ra,-22690               # 0x251ec

----------------
IN: strcmp
0x000251ec:  1141              addi                    sp,sp,-16
0x000251ee:  e422              sd                      s0,8(sp)
0x000251f0:  40a006b3          neg                     a3,a0
0x000251f4:  0800              addi                    s0,sp,16
0x000251f6:  8a9d              andi                    a3,a3,7
0x000251f8:  87aa              mv                      a5,a0
0x000251fa:  c295              beqz                    a3,36                   # 0x2521e

----------------
IN: strcmp
0x000251fc:  96aa              add                     a3,a3,a0
0x000251fe:  a021              j                       8                       # 0x25206

----------------
IN: strcmp
0x00025206:  0007c703          lbu                     a4,0(a5)
0x0002520a:  0005c503          lbu                     a0,0(a1)
0x0002520e:  0785              addi                    a5,a5,1
0x00025210:  0585              addi                    a1,a1,1
0x00025212:  40a7053b          subw                    a0,a4,a0
0x00025216:  f76d              bnez                    a4,-22                  # 0x25200

----------------
IN: strcmp
0x00025200:  ed01              bnez                    a0,24                   # 0x25218

----------------
IN: strcmp
0x00025202:  00d78f63          beq                     a5,a3,30                # 0x25220

----------------
IN: strcmp
0x00025220:  0075f613          andi                    a2,a1,7
0x00025224:  629c              ld                      a5,0(a3)
0x00025226:  06a1              addi                    a3,a3,8
0x00025228:  ee79              bnez                    a2,222                  # 0x25306

----------------
IN: strcmp
0x00025306:  99e1              andi                    a1,a1,-8
0x00025308:  feff0e37          lui                     t3,-4112
0x0002530c:  6188              ld                      a0,0(a1)
0x0002530e:  effe0e13          addi                    t3,t3,-257
0x00025312:  f0101337          lui                     t1,-65279
0x00025316:  00361713          slli                    a4,a2,3
0x0002531a:  0e42              slli                    t3,t3,16
0x0002531c:  0312              slli                    t1,t1,4
0x0002531e:  04000e93          addi                    t4,zero,64
0x00025322:  40ee8eb3          sub                     t4,t4,a4
0x00025326:  effe0e13          addi                    t3,t3,-257
0x0002532a:  10130313          addi                    t1,t1,257
0x0002532e:  587d              addi                    a6,zero,-1
0x00025330:  00e55533          srl                     a0,a0,a4
0x00025334:  01d81833          sll                     a6,a6,t4
0x00025338:  0e42              slli                    t3,t3,16
0x0002533a:  0342              slli                    t1,t1,16
0x0002533c:  00a86833          or                      a6,a6,a0
0x00025340:  effe0e13          addi                    t3,t3,-257
0x00025344:  10130313          addi                    t1,t1,257
0x00025348:  88ba              mv                      a7,a4
0x0002534a:  01c80633          add                     a2,a6,t3
0x0002534e:  fff84713          not                     a4,a6
0x00025352:  033e              slli                    t1,t1,15
0x00025354:  8e79              and                     a2,a2,a4
0x00025356:  08030313          addi                    t1,t1,128
0x0002535a:  00667633          and                     a2,a2,t1
0x0002535e:  ee21              bnez                    a2,88                   # 0x253b6

----------------
IN: strcmp
0x00025360:  0085b803          ld                      a6,8(a1)
0x00025364:  01058713          addi                    a4,a1,16
0x00025368:  01d81633          sll                     a2,a6,t4
0x0002536c:  8e49              or                      a2,a2,a0
0x0002536e:  00c78c63          beq                     a5,a2,24                # 0x25386

----------------
IN: strcmp
0x00025386:  fff84593          not                     a1,a6
0x0002538a:  01c80633          add                     a2,a6,t3
0x0002538e:  8e6d              and                     a2,a2,a1
0x00025390:  00667633          and                     a2,a2,t1
0x00025394:  0721              addi                    a4,a4,8
0x00025396:  011855b3          srl                     a1,a6,a7
0x0002539a:  de69              beqz                    a2,-38                  # 0x25374

----------------
IN: strcmp
0x00025374:  ff873803          ld                      a6,-8(a4)
0x00025378:  629c              ld                      a5,0(a3)
0x0002537a:  06a1              addi                    a3,a3,8
0x0002537c:  01d81633          sll                     a2,a6,t4
0x00025380:  8e4d              or                      a2,a2,a1
0x00025382:  f0f613e3          bne                     a2,a5,-250              # 0x25288

----------------
IN: strcmp
0x0002539c:  01c78733          add                     a4,a5,t3
0x000253a0:  fff7c793          not                     a5,a5
0x000253a4:  8ff9              and                     a5,a5,a4
0x000253a6:  0067f7b3          and                     a5,a5,t1
0x000253aa:  4501              mv                      a0,zero
0x000253ac:  e60796e3          bnez                    a5,-404                 # 0x25218

----------------
IN: strcmp
0x000253b0:  629c              ld                      a5,0(a3)
0x000253b2:  01185833          srl                     a6,a6,a7
0x000253b6:  0feff737          lui                     a4,65279
0x000253ba:  0712              slli                    a4,a4,4
0x000253bc:  eff70713          addi                    a4,a4,-257
0x000253c0:  0742              slli                    a4,a4,16
0x000253c2:  eff70713          addi                    a4,a4,-257
0x000253c6:  073e              slli                    a4,a4,15
0x000253c8:  f7f70713          addi                    a4,a4,-129
0x000253cc:  0107c5b3          xor                     a1,a5,a6
0x000253d0:  00e7f6b3          and                     a3,a5,a4
0x000253d4:  96ba              add                     a3,a3,a4
0x000253d6:  00e5f633          and                     a2,a1,a4
0x000253da:  8edd              or                      a3,a3,a5
0x000253dc:  963a              add                     a2,a2,a4
0x000253de:  fff6c713          not                     a4,a3
0x000253e2:  00b666b3          or                      a3,a2,a1
0x000253e6:  8f55              or                      a4,a4,a3
0x000253e8:  08077693          andi                    a3,a4,128
0x000253ec:  ee85              bnez                    a3,56                   # 0x25424

----------------
IN: strcmp
0x000253ee:  03071693          slli                    a3,a4,48
0x000253f2:  0406c463          bltz                    a3,72                   # 0x2543a

----------------
IN: strcmp
0x0002543a:  83a1              srli                    a5,a5,8
0x0002543c:  00885813          srli                    a6,a6,8
0x00025440:  b7d5              j                       -28                     # 0x25424

----------------
IN: strcmp
0x00025424:  6422              ld                      s0,8(sp)
0x00025426:  0ff7f793          andi                    a5,a5,255
0x0002542a:  0ff87813          andi                    a6,a6,255
0x0002542e:  4107853b          subw                    a0,a5,a6
0x00025432:  0141              addi                    sp,sp,16
0x00025434:  8082              ret                     

----------------
IN: check_match
0x0002aa92:  e55d              bnez                    a0,174                  # 0x2ab40

----------------
IN: check_match
0x0002aa94:  35893783          ld                      a5,856(s2)
0x0002aa98:  060a0163          beqz                    s4,98                   # 0x2aafa

----------------
IN: check_match
0x0002aa9c:  cbf1              beqz                    a5,212                  # 0x2ab70

----------------
IN: check_match
0x0002ab70:  010a3503          ld                      a0,16(s4)
0x0002ab74:  d92d              beqz                    a0,-142                 # 0x2aae6

----------------
IN: check_match
0x0002aae6:  8526              mv                      a0,s1
0x0002aae8:  70e2              ld                      ra,56(sp)
0x0002aaea:  7442              ld                      s0,48(sp)
0x0002aaec:  74a2              ld                      s1,40(sp)
0x0002aaee:  7902              ld                      s2,32(sp)
0x0002aaf0:  69e2              ld                      s3,24(sp)
0x0002aaf2:  6a42              ld                      s4,16(sp)
0x0002aaf4:  6aa2              ld                      s5,8(sp)
0x0002aaf6:  6121              addi                    sp,sp,64
0x0002aaf8:  8082              ret                     

----------------
IN: do_lookup_x
0x0002af1c:  50051a63          bnez                    a0,1300                 # 0x2b430

----------------
IN: do_lookup_x
0x0002b430:  82e6              mv                      t0,s9
0x0002b432:  f3843f83          ld                      t6,-200(s0)
0x0002b436:  f4043c83          ld                      s9,-192(s0)
0x0002b43a:  f3043b83          ld                      s7,-208(s0)
0x0002b43e:  01843f03          ld                      t5,24(s0)
0x0002b442:  f2843703          ld                      a4,-216(s0)
0x0002b446:  f2043e83          ld                      t4,-224(s0)
0x0002b44a:  f1843e03          ld                      t3,-232(s0)
0x0002b44e:  87aa              mv                      a5,a0
0x0002b450:  88ce              mv                      a7,s3
0x0002b452:  baad              j                       -1670                   # 0x2adcc

----------------
IN: do_lookup_x
0x0002adcc:  0057c683          lbu                     a3,5(a5)
0x0002add0:  8a8d              andi                    a3,a3,3
0x0002add2:  fff6861b          addiw                   a2,a3,-1
0x0002add6:  06cc7f63          bleu                    a2,s8,126               # 0x2ae54

----------------
IN: do_lookup_x
0x0002adda:  460d              addi                    a2,zero,3
0x0002addc:  14c68563          beq                     a3,a2,330               # 0x2af26

----------------
IN: do_lookup_x
0x0002ade0:  0047c683          lbu                     a3,4(a5)
0x0002ade4:  4609              addi                    a2,zero,2
0x0002ade6:  8291              srli                    a3,a3,4
0x0002ade8:  1ac68f63          beq                     a3,a2,446               # 0x2afa6

----------------
IN: do_lookup_x
0x0002adec:  4629              addi                    a2,zero,10
0x0002adee:  1ec68063          beq                     a3,a2,480               # 0x2afce

----------------
IN: do_lookup_x
0x0002adf2:  4605              addi                    a2,zero,1
0x0002adf4:  06c69063          bne                     a3,a2,96                # 0x2ae54

----------------
IN: do_lookup_x
0x0002adf8:  f5843703          ld                      a4,-168(s0)
0x0002adfc:  e31c              sd                      a5,0(a4)
0x0002adfe:  e704              sd                      s1,8(a4)
0x0002ae00:  79ae              ld                      s3,232(sp)
0x0002ae02:  6aee              ld                      s5,216(sp)
0x0002ae04:  7d4a              ld                      s10,176(sp)
0x0002ae06:  4505              addi                    a0,zero,1
0x0002ae08:  60b2              ld                      ra,264(sp)
0x0002ae0a:  6412              ld                      s0,256(sp)
0x0002ae0c:  74ee              ld                      s1,248(sp)
0x0002ae0e:  794e              ld                      s2,240(sp)
0x0002ae10:  7a0e              ld                      s4,224(sp)
0x0002ae12:  6b4e              ld                      s6,208(sp)
0x0002ae14:  6bae              ld                      s7,200(sp)
0x0002ae16:  6c0e              ld                      s8,192(sp)
0x0002ae18:  7cea              ld                      s9,184(sp)
0x0002ae1a:  7daa              ld                      s11,168(sp)
0x0002ae1c:  6151              addi                    sp,sp,272
0x0002ae1e:  8082              ret                     

----------------
IN: _dl_lookup_symbol_x
0x0002b5b8:  dd71              beqz                    a0,-36                  # 0x2b594

----------------
IN: _dl_lookup_symbol_x
0x0002b5ba:  00093683          ld                      a3,0(s2)
0x0002b5be:  f6843783          ld                      a5,-152(s0)
0x0002b5c2:  8736              mv                      a4,a3
0x0002b5c4:  28078f63          beqz                    a5,670                  # 0x2b862

----------------
IN: _dl_lookup_symbol_x
0x0002b5c8:  c699              beqz                    a3,14                   # 0x2b5d6

----------------
IN: _dl_lookup_symbol_x
0x0002b5ca:  0056c783          lbu                     a5,5(a3)
0x0002b5ce:  470d              addi                    a4,zero,3
0x0002b5d0:  8b8d              andi                    a5,a5,3
0x0002b5d2:  04e78c63          beq                     a5,a4,88                # 0x2b62a

----------------
IN: _dl_lookup_symbol_x
0x0002b5d6:  f7043d83          ld                      s11,-144(s0)
0x0002b5da:  4c01              mv                      s8,zero
0x0002b5dc:  334dd783          lhu                     a5,820(s11)
0x0002b5e0:  4709              addi                    a4,zero,2
0x0002b5e2:  8b8d              andi                    a5,a5,3
0x0002b5e4:  0ce78163          beq                     a5,a4,194               # 0x2b6a6

----------------
IN: _dl_lookup_symbol_x
0x0002b5e8:  00056997          auipc                   s3,86                   # 0x815e8
0x0002b5ec:  6b09b983          ld                      s3,1712(s3)
0x0002b5f0:  3ecda783          lw                      a5,1004(s11)
0x0002b5f4:  1c078563          beqz                    a5,458                  # 0x2b7be

----------------
IN: _dl_lookup_symbol_x
0x0002b5f8:  0009a783          lw                      a5,0(s3)
0x0002b5fc:  8b91              andi                    a5,a5,4
0x0002b5fe:  14079463          bnez                    a5,328                  # 0x2b746

----------------
IN: _dl_lookup_symbol_x
0x0002b602:  f6843783          ld                      a5,-152(s0)
0x0002b606:  7c0a              ld                      s8,160(sp)
0x0002b608:  6cea              ld                      s9,152(sp)
0x0002b60a:  70ae              ld                      ra,232(sp)
0x0002b60c:  740e              ld                      s0,224(sp)
0x0002b60e:  00f93023          sd                      a5,0(s2)
0x0002b612:  64ee              ld                      s1,216(sp)
0x0002b614:  694e              ld                      s2,208(sp)
0x0002b616:  69ae              ld                      s3,200(sp)
0x0002b618:  6a0e              ld                      s4,192(sp)
0x0002b61a:  7aea              ld                      s5,184(sp)
0x0002b61c:  7b4a              ld                      s6,176(sp)
0x0002b61e:  7baa              ld                      s7,168(sp)
0x0002b620:  6d4a              ld                      s10,144(sp)
0x0002b622:  856e              mv                      a0,s11
0x0002b624:  6daa              ld                      s11,136(sp)
0x0002b626:  616d              addi                    sp,sp,240
0x0002b628:  8082              ret                     

----------------
IN: _dl_non_dynamic_init
0x0001b2a2:  f9043703          ld                      a4,-112(s0)
0x0001b2a6:  36070b63          beqz                    a4,886                  # 0x1b61c

----------------
IN: _dl_non_dynamic_init
0x0001b2aa:  00675683          lhu                     a3,6(a4)
0x0001b2ae:  67c1              lui                     a5,16
0x0001b2b0:  17c5              addi                    a5,a5,-15
0x0001b2b2:  38f68563          beq                     a3,a5,906               # 0x1b63c

----------------
IN: _dl_non_dynamic_init
0x0001b2b6:  4781              mv                      a5,zero
0x0001b2b8:  c111              beqz                    a0,4                    # 0x1b2bc

----------------
IN: _dl_non_dynamic_init
0x0001b2ba:  611c              ld                      a5,0(a0)
0x0001b2bc:  6718              ld                      a4,8(a4)
0x0001b2be:  058b3583          ld                      a1,88(s6)
0x0001b2c2:  97ba              add                     a5,a5,a4
0x0001b2c4:  00066497          auipc                   s1,102                  # 0x812c4
0x0001b2c8:  a4c48493          addi                    s1,s1,-1460
0x0001b2cc:  e49c              sd                      a5,8(s1)
0x0001b2ce:  36058d63          beqz                    a1,890                  # 0x1b648

----------------
IN: _dl_non_dynamic_init
0x0001b2d2:  f8043c23          sd                      zero,-104(s0)
0x0001b2d6:  00063717          auipc                   a4,99                   # 0x7e2d6
0x0001b2da:  0e270713          addi                    a4,a4,226
0x0001b2de:  02000313          addi                    t1,zero,32
0x0001b2e2:  4881              mv                      a7,zero
0x0001b2e4:  4801              mv                      a6,zero
0x0001b2e6:  4781              mv                      a5,zero
0x0001b2e8:  3a858693          addi                    a3,a1,936
0x0001b2ec:  8662              mv                      a2,s8
0x0001b2ee:  00039517          auipc                   a0,57                   # 0x542ee
0x0001b2f2:  6d250513          addi                    a0,a0,1746
0x0001b2f6:  fa043023          sd                      zero,-96(s0)
0x0001b2fa:  fa043423          sd                      zero,-88(s0)
0x0001b2fe:  f8640e23          sb                      t1,-100(s0)
0x0001b302:  f9743823          sd                      s7,-112(s0)
0x0001b306:  1d8100ef          jal                     ra,66008                # 0x2b4de

----------------
IN: _dl_lookup_symbol_x
0x0002b698:  01a7073b          addw                    a4,a4,s10
0x0002b69c:  005d159b          slliw                   a1,s10,5
0x0002b6a0:  00b70d3b          addw                    s10,a4,a1
0x0002b6a4:  b575              j                       -340                    # 0x2b550

----------------
IN: strcmp
0x00025288:  0feff737          lui                     a4,65279
0x0002528c:  0712              slli                    a4,a4,4
0x0002528e:  eff70713          addi                    a4,a4,-257
0x00025292:  0742              slli                    a4,a4,16
0x00025294:  eff70713          addi                    a4,a4,-257
0x00025298:  073e              slli                    a4,a4,15
0x0002529a:  f7f70713          addi                    a4,a4,-129
0x0002529e:  00f64533          xor                     a0,a2,a5
0x000252a2:  00e7f6b3          and                     a3,a5,a4
0x000252a6:  96ba              add                     a3,a3,a4
0x000252a8:  00e575b3          and                     a1,a0,a4
0x000252ac:  8edd              or                      a3,a3,a5
0x000252ae:  95ba              add                     a1,a1,a4
0x000252b0:  fff6c713          not                     a4,a3
0x000252b4:  00a5e6b3          or                      a3,a1,a0
0x000252b8:  8f55              or                      a4,a4,a3
0x000252ba:  08077693          andi                    a3,a4,128
0x000252be:  ea9d              bnez                    a3,54                   # 0x252f4

----------------
IN: strcmp
0x000252c0:  03071693          slli                    a3,a4,48
0x000252c4:  1806c263          bltz                    a3,388                  # 0x25448

----------------
IN: strcmp
0x000252c8:  02871693          slli                    a3,a4,40
0x000252cc:  1606cb63          bltz                    a3,374                  # 0x25442

----------------
IN: strcmp
0x000252d0:  02071693          slli                    a3,a4,32
0x000252d4:  1806c163          bltz                    a3,386                  # 0x25456

----------------
IN: strcmp
0x000252d8:  01871693          slli                    a3,a4,24
0x000252dc:  1806c763          bltz                    a3,398                  # 0x2546a

----------------
IN: strcmp
0x0002546a:  9381              srli                    a5,a5,32
0x0002546c:  9201              srli                    a2,a2,32
0x0002546e:  b559              j                       -378                    # 0x252f4

----------------
IN: strcmp
0x000252f4:  6422              ld                      s0,8(sp)
0x000252f6:  0ff7f793          andi                    a5,a5,255
0x000252fa:  0ff67613          andi                    a2,a2,255
0x000252fe:  40c7853b          subw                    a0,a5,a2
0x00025302:  0141              addi                    sp,sp,16
0x00025304:  8082              ret                     

----------------
IN: _dl_non_dynamic_init
0x0001b30a:  f9043703          ld                      a4,-112(s0)
0x0001b30e:  30070b63          beqz                    a4,790                  # 0x1b624

----------------
IN: _dl_non_dynamic_init
0x0001b312:  00675683          lhu                     a3,6(a4)
0x0001b316:  67c1              lui                     a5,16
0x0001b318:  17c5              addi                    a5,a5,-15
0x0001b31a:  32f68363          beq                     a3,a5,806               # 0x1b640

----------------
IN: _dl_non_dynamic_init
0x0001b31e:  4781              mv                      a5,zero
0x0001b320:  c111              beqz                    a0,4                    # 0x1b324

----------------
IN: _dl_non_dynamic_init
0x0001b322:  611c              ld                      a5,0(a0)
0x0001b324:  6718              ld                      a4,8(a4)
0x0001b326:  058b3583          ld                      a1,88(s6)
0x0001b32a:  97ba              add                     a5,a5,a4
0x0001b32c:  e89c              sd                      a5,16(s1)
0x0001b32e:  3a058d63          beqz                    a1,954                  # 0x1b6e8

----------------
IN: _dl_non_dynamic_init
0x0001b332:  f8043c23          sd                      zero,-104(s0)
0x0001b336:  00063717          auipc                   a4,99                   # 0x7e336
0x0001b33a:  08270713          addi                    a4,a4,130
0x0001b33e:  02000313          addi                    t1,zero,32
0x0001b342:  4881              mv                      a7,zero
0x0001b344:  4801              mv                      a6,zero
0x0001b346:  4781              mv                      a5,zero
0x0001b348:  3a858693          addi                    a3,a1,936
0x0001b34c:  8662              mv                      a2,s8
0x0001b34e:  00039517          auipc                   a0,57                   # 0x5434e
0x0001b352:  68a50513          addi                    a0,a0,1674
0x0001b356:  fa043023          sd                      zero,-96(s0)
0x0001b35a:  fa043423          sd                      zero,-88(s0)
0x0001b35e:  f8640e23          sb                      t1,-100(s0)
0x0001b362:  f9743823          sd                      s7,-112(s0)
0x0001b366:  178100ef          jal                     ra,65912                # 0x2b4de

----------------
IN: strcmp
0x000253f6:  02871693          slli                    a3,a4,40
0x000253fa:  0406ca63          bltz                    a3,84                   # 0x2544e

----------------
IN: strcmp
0x000253fe:  02071693          slli                    a3,a4,32
0x00025402:  0406cd63          bltz                    a3,90                   # 0x2545c

----------------
IN: strcmp
0x0002545c:  83e1              srli                    a5,a5,24
0x0002545e:  01885813          srli                    a6,a6,24
0x00025462:  b7c9              j                       -62                     # 0x25424

----------------
IN: _dl_non_dynamic_init
0x0001b36a:  f9043703          ld                      a4,-112(s0)
0x0001b36e:  2a070f63          beqz                    a4,702                  # 0x1b62c

----------------
IN: _dl_non_dynamic_init
0x0001b372:  00675683          lhu                     a3,6(a4)
0x0001b376:  67c1              lui                     a5,16
0x0001b378:  17c5              addi                    a5,a5,-15
0x0001b37a:  2cf68563          beq                     a3,a5,714               # 0x1b644

----------------
IN: _dl_non_dynamic_init
0x0001b37e:  4781              mv                      a5,zero
0x0001b380:  c111              beqz                    a0,4                    # 0x1b384

----------------
IN: _dl_non_dynamic_init
0x0001b382:  611c              ld                      a5,0(a0)
0x0001b384:  6718              ld                      a4,8(a4)
0x0001b386:  058b3583          ld                      a1,88(s6)
0x0001b38a:  97ba              add                     a5,a5,a4
0x0001b38c:  ec9c              sd                      a5,24(s1)
0x0001b38e:  24058f63          beqz                    a1,606                  # 0x1b5ec

----------------
IN: _dl_non_dynamic_init
0x0001b392:  f8043c23          sd                      zero,-104(s0)
0x0001b396:  00063717          auipc                   a4,99                   # 0x7e396
0x0001b39a:  02270713          addi                    a4,a4,34
0x0001b39e:  02000313          addi                    t1,zero,32
0x0001b3a2:  4881              mv                      a7,zero
0x0001b3a4:  4801              mv                      a6,zero
0x0001b3a6:  4781              mv                      a5,zero
0x0001b3a8:  3a858693          addi                    a3,a1,936
0x0001b3ac:  8662              mv                      a2,s8
0x0001b3ae:  00039517          auipc                   a0,57                   # 0x543ae
0x0001b3b2:  63a50513          addi                    a0,a0,1594
0x0001b3b6:  fa043023          sd                      zero,-96(s0)
0x0001b3ba:  fa043423          sd                      zero,-88(s0)
0x0001b3be:  f8640e23          sb                      t1,-100(s0)
0x0001b3c2:  f9743823          sd                      s7,-112(s0)
0x0001b3c6:  118100ef          jal                     ra,65816                # 0x2b4de

----------------
IN: strcmp
0x000252e0:  01071693          slli                    a3,a4,16
0x000252e4:  1806ce63          bltz                    a3,412                  # 0x25480

----------------
IN: strcmp
0x00025480:  93a1              srli                    a5,a5,40
0x00025482:  9221              srli                    a2,a2,40
0x00025484:  bd85              j                       -400                    # 0x252f4

----------------
IN: _dl_non_dynamic_init
0x0001b3ca:  f9043703          ld                      a4,-112(s0)
0x0001b3ce:  20070f63          beqz                    a4,542                  # 0x1b5ec

----------------
IN: _dl_non_dynamic_init
0x0001b3d2:  00675683          lhu                     a3,6(a4)
0x0001b3d6:  67c1              lui                     a5,16
0x0001b3d8:  17c5              addi                    a5,a5,-15
0x0001b3da:  24f68f63          beq                     a3,a5,606               # 0x1b638

----------------
IN: _dl_non_dynamic_init
0x0001b3de:  4781              mv                      a5,zero
0x0001b3e0:  c111              beqz                    a0,4                    # 0x1b3e4

----------------
IN: _dl_non_dynamic_init
0x0001b3e2:  611c              ld                      a5,0(a0)
0x0001b3e4:  6718              ld                      a4,8(a4)
0x0001b3e6:  7c02              ld                      s8,32(sp)
0x0001b3e8:  97ba              add                     a5,a5,a4
0x0001b3ea:  f09c              sd                      a5,32(s1)
0x0001b3ec:  00068797          auipc                   a5,104                  # 0x833ec
0x0001b3f0:  0dc7a783          lw                      a5,220(a5)
0x0001b3f4:  14079c63          bnez                    a5,344                  # 0x1b54c

----------------
IN: _dl_non_dynamic_init
0x0001b3f8:  00039517          auipc                   a0,57                   # 0x543f8
0x0001b3fc:  60850513          addi                    a0,a0,1544
0x0001b400:  524000ef          jal                     ra,1316                 # 0x1b924

----------------
IN: getenv
0x0001b924:  7139              addi                    sp,sp,-64
0x0001b926:  f822              sd                      s0,48(sp)
0x0001b928:  f04a              sd                      s2,32(sp)
0x0001b92a:  fc06              sd                      ra,56(sp)
0x0001b92c:  f426              sd                      s1,40(sp)
0x0001b92e:  0080              addi                    s0,sp,64
0x0001b930:  00066797          auipc                   a5,102                  # 0x81930
0x0001b934:  3f07b783          ld                      a5,1008(a5)
0x0001b938:  0007b903          ld                      s2,0(a5)
0x0001b93c:  08090a63          beqz                    s2,148                  # 0x1b9d0

----------------
IN: getenv
0x0001b940:  e456              sd                      s5,8(sp)
0x0001b942:  ec4e              sd                      s3,24(sp)
0x0001b944:  00054983          lbu                     s3,0(a0)
0x0001b948:  8aaa              mv                      s5,a0
0x0001b94a:  06098963          beqz                    s3,114                  # 0x1b9bc

----------------
IN: getenv
0x0001b94e:  e852              sd                      s4,16(sp)
0x0001b950:  84efd0ef          jal                     ra,-12210               # 0x1899e

----------------
IN: __strlen
0x00018a6a:  03071793          slli                    a5,a4,48
0x00018a6e:  4505              addi                    a0,zero,1
0x00018a70:  fe07c6e3          bltz                    a5,-20                  # 0x18a5c

----------------
IN: __strlen
0x00018a74:  02871793          slli                    a5,a4,40
0x00018a78:  4509              addi                    a0,zero,2
0x00018a7a:  fe07c1e3          bltz                    a5,-30                  # 0x18a5c

----------------
IN: __strlen
0x00018a7e:  02071793          slli                    a5,a4,32
0x00018a82:  450d              addi                    a0,zero,3
0x00018a84:  fc07cce3          bltz                    a5,-40                  # 0x18a5c

----------------
IN: __strlen
0x00018a88:  01871793          slli                    a5,a4,24
0x00018a8c:  4511              addi                    a0,zero,4
0x00018a8e:  fc07c7e3          bltz                    a5,-50                  # 0x18a5c

----------------
IN: __strlen
0x00018a92:  01071793          slli                    a5,a4,16
0x00018a96:  4515              addi                    a0,zero,5
0x00018a98:  fc07c2e3          bltz                    a5,-60                  # 0x18a5c

----------------
IN: __strlen
0x00018a9c:  4785              addi                    a5,zero,1
0x00018a9e:  17de              slli                    a5,a5,55
0x00018aa0:  8f7d              and                     a4,a4,a5
0x00018aa2:  00173513          seqz                    a0,a4
0x00018aa6:  0519              addi                    a0,a0,6
0x00018aa8:  bf55              j                       -76                     # 0x18a5c

----------------
IN: getenv
0x0001b954:  00093483          ld                      s1,0(s2)
0x0001b958:  8a2a              mv                      s4,a0
0x0001b95a:  ccad              beqz                    s1,122                  # 0x1b9d4

----------------
IN: getenv
0x0001b95c:  e05a              sd                      s6,0(sp)
0x0001b95e:  03d00b13          addi                    s6,zero,61
0x0001b962:  a029              j                       10                      # 0x1b96c

----------------
IN: getenv
0x0001b96c:  0004c783          lbu                     a5,0(s1)
0x0001b970:  ff379ae3          bne                     a5,s3,-12               # 0x1b964

----------------
IN: getenv
0x0001b974:  8652              mv                      a2,s4
0x0001b976:  85a6              mv                      a1,s1
0x0001b978:  8556              mv                      a0,s5
0x0001b97a:  315090ef          jal                     ra,39700                # 0x2548e

----------------
IN: strncmp
0x0002548e:  1141              addi                    sp,sp,-16
0x00025490:  e422              sd                      s0,8(sp)
0x00025492:  40a00833          neg                     a6,a0
0x00025496:  0800              addi                    s0,sp,16
0x00025498:  00787813          andi                    a6,a6,7
0x0002549c:  87aa              mv                      a5,a0
0x0002549e:  88b2              mv                      a7,a2
0x000254a0:  01066363          bgtu                    a6,a2,6                 # 0x254a6

----------------
IN: strncmp
0x000254a4:  88c2              mv                      a7,a6
0x000254a6:  02088463          beqz                    a7,40                   # 0x254ce

----------------
IN: strncmp
0x000254ce:  86ae              mv                      a3,a1
0x000254d0:  4501              mv                      a0,zero
0x000254d2:  fec87be3          bleu                    a2,a6,-10               # 0x254c8

----------------
IN: strncmp
0x000254d6:  0076fe93          andi                    t4,a3,7
0x000254da:  638c              ld                      a1,0(a5)
0x000254dc:  41160633          sub                     a2,a2,a7
0x000254e0:  07a1              addi                    a5,a5,8
0x000254e2:  120e8c63          beqz                    t4,312                  # 0x2561a

----------------
IN: strncmp
0x0002561a:  0006be03          ld                      t3,0(a3)
0x0002561e:  06a1              addi                    a3,a3,8
0x00025620:  25c59163          bne                     a1,t3,578               # 0x25862

----------------
IN: strncmp
0x00025862:  0feff737          lui                     a4,65279
0x00025866:  0712              slli                    a4,a4,4
0x00025868:  eff70713          addi                    a4,a4,-257
0x0002586c:  0742              slli                    a4,a4,16
0x0002586e:  eff70713          addi                    a4,a4,-257
0x00025872:  073e              slli                    a4,a4,15
0x00025874:  f7f70713          addi                    a4,a4,-129
0x00025878:  01c5c533          xor                     a0,a1,t3
0x0002587c:  00e5f7b3          and                     a5,a1,a4
0x00025880:  97ba              add                     a5,a5,a4
0x00025882:  00e576b3          and                     a3,a0,a4
0x00025886:  9736              add                     a4,a4,a3
0x00025888:  8fcd              or                      a5,a5,a1
0x0002588a:  8f49              or                      a4,a4,a0
0x0002588c:  fff7c793          not                     a5,a5
0x00025890:  8fd9              or                      a5,a5,a4
0x00025892:  0807f693          andi                    a3,a5,128
0x00025896:  4701              mv                      a4,zero
0x00025898:  e2068ae3          beqz                    a3,-460                 # 0x256cc

----------------
IN: strncmp
0x000256cc:  03079713          slli                    a4,a5,48
0x000256d0:  16074a63          bltz                    a4,372                  # 0x25844

----------------
IN: strncmp
0x00025844:  4e85              addi                    t4,zero,1
0x00025846:  4705              addi                    a4,zero,1
0x00025848:  bd65              j                       -328                    # 0x25700

----------------
IN: strncmp
0x00025700:  4501              mv                      a0,zero
0x00025702:  dccef3e3          bleu                    a2,t4,-570              # 0x254c8

----------------
IN: strncmp
0x00025706:  070e              slli                    a4,a4,3
0x00025708:  00e5d533          srl                     a0,a1,a4
0x0002570c:  00ee5733          srl                     a4,t3,a4
0x00025710:  0ff57513          andi                    a0,a0,255
0x00025714:  0ff77793          andi                    a5,a4,255
0x00025718:  9d1d              subw                    a0,a0,a5
0x0002571a:  b37d              j                       -594                    # 0x254c8

----------------
IN: strncmp
0x000254c8:  6422              ld                      s0,8(sp)
0x000254ca:  0141              addi                    sp,sp,16
0x000254cc:  8082              ret                     

----------------
IN: getenv
0x0001b97e:  014487b3          add                     a5,s1,s4
0x0001b982:  f16d              bnez                    a0,-30                  # 0x1b964

----------------
IN: getenv
0x0001b964:  00893483          ld                      s1,8(s2)
0x0001b968:  0921              addi                    s2,s2,8
0x0001b96a:  cc95              beqz                    s1,60                   # 0x1b9a6

----------------
IN: strncmp
0x000254e6:  9ae1              andi                    a3,a3,-8
0x000254e8:  feff0337          lui                     t1,-4112
0x000254ec:  0006be03          ld                      t3,0(a3)
0x000254f0:  eff30313          addi                    t1,t1,-257
0x000254f4:  f0101537          lui                     a0,-65279
0x000254f8:  003e9713          slli                    a4,t4,3
0x000254fc:  0342              slli                    t1,t1,16
0x000254fe:  0512              slli                    a0,a0,4
0x00025500:  04000f13          addi                    t5,zero,64
0x00025504:  40ef0f33          sub                     t5,t5,a4
0x00025508:  eff30313          addi                    t1,t1,-257
0x0002550c:  10150513          addi                    a0,a0,257
0x00025510:  587d              addi                    a6,zero,-1
0x00025512:  00ee5e33          srl                     t3,t3,a4
0x00025516:  01e81833          sll                     a6,a6,t5
0x0002551a:  0342              slli                    t1,t1,16
0x0002551c:  0542              slli                    a0,a0,16
0x0002551e:  01c86833          or                      a6,a6,t3
0x00025522:  eff30313          addi                    t1,t1,-257
0x00025526:  10150513          addi                    a0,a0,257
0x0002552a:  8fba              mv                      t6,a4
0x0002552c:  fff84893          not                     a7,a6
0x00025530:  00680733          add                     a4,a6,t1
0x00025534:  053e              slli                    a0,a0,15
0x00025536:  01177733          and                     a4,a4,a7
0x0002553a:  08050513          addi                    a0,a0,128
0x0002553e:  8f69              and                     a4,a4,a0
0x00025540:  1c071e63          bnez                    a4,476                  # 0x2571c

----------------
IN: strncmp
0x00025544:  42a1              addi                    t0,zero,8
0x00025546:  41d288b3          sub                     a7,t0,t4
0x0002554a:  1cc8f963          bleu                    a2,a7,466               # 0x2571c

----------------
IN: strncmp
0x0002554e:  0086b803          ld                      a6,8(a3)
0x00025552:  01068713          addi                    a4,a3,16
0x00025556:  01e816b3          sll                     a3,a6,t5
0x0002555a:  01c6e6b3          or                      a3,a3,t3
0x0002555e:  24c2fd63          bleu                    a2,t0,602               # 0x257b8

----------------
IN: strncmp
0x000257b8:  0feff7b7          lui                     a5,65279
0x000257bc:  0792              slli                    a5,a5,4
0x000257be:  eff78793          addi                    a5,a5,-257
0x000257c2:  07c2              slli                    a5,a5,16
0x000257c4:  eff78793          addi                    a5,a5,-257
0x000257c8:  07be              slli                    a5,a5,15
0x000257ca:  f7f78793          addi                    a5,a5,-129
0x000257ce:  00b6c833          xor                     a6,a3,a1
0x000257d2:  00f5f733          and                     a4,a1,a5
0x000257d6:  973e              add                     a4,a4,a5
0x000257d8:  00f87533          and                     a0,a6,a5
0x000257dc:  8f4d              or                      a4,a4,a1
0x000257de:  953e              add                     a0,a0,a5
0x000257e0:  fff74793          not                     a5,a4
0x000257e4:  01056733          or                      a4,a0,a6
0x000257e8:  8fd9              or                      a5,a5,a4
0x000257ea:  0807f713          andi                    a4,a5,128
0x000257ee:  e339              bnez                    a4,70                   # 0x25834

----------------
IN: strncmp
0x000257f0:  03079713          slli                    a4,a5,48
0x000257f4:  0a074563          bltz                    a4,170                  # 0x2589e

----------------
IN: strncmp
0x0002589e:  81a1              srli                    a1,a1,8
0x000258a0:  82a1              srli                    a3,a3,8
0x000258a2:  bf49              j                       -110                    # 0x25834

----------------
IN: strncmp
0x00025834:  0ff5f513          andi                    a0,a1,255
0x00025838:  0ff6f693          andi                    a3,a3,255
0x0002583c:  9d15              subw                    a0,a0,a3
0x0002583e:  b169              j                       -886                    # 0x254c8

----------------
IN: getenv
0x0001b9a6:  69e2              ld                      s3,24(sp)
0x0001b9a8:  6a42              ld                      s4,16(sp)
0x0001b9aa:  6aa2              ld                      s5,8(sp)
0x0001b9ac:  6b02              ld                      s6,0(sp)
0x0001b9ae:  70e2              ld                      ra,56(sp)
0x0001b9b0:  7442              ld                      s0,48(sp)
0x0001b9b2:  7902              ld                      s2,32(sp)
0x0001b9b4:  8526              mv                      a0,s1
0x0001b9b6:  74a2              ld                      s1,40(sp)
0x0001b9b8:  6121              addi                    sp,sp,64
0x0001b9ba:  8082              ret                     

----------------
IN: _dl_non_dynamic_init
0x0001b404:  4781              mv                      a5,zero
0x0001b406:  c509              beqz                    a0,10                   # 0x1b410

----------------
IN: _dl_non_dynamic_init
0x0001b410:  00039517          auipc                   a0,57                   # 0x54410
0x0001b414:  5f850513          addi                    a0,a0,1528
0x0001b418:  06fb2023          sw                      a5,96(s6)
0x0001b41c:  508000ef          jal                     ra,1288                 # 0x1b924

----------------
IN: __strlen
0x000189dc:  f0101637          lui                     a2,-65279
0x000189e0:  feff05b7          lui                     a1,-4112
0x000189e4:  0612              slli                    a2,a2,4
0x000189e6:  eff58593          addi                    a1,a1,-257
0x000189ea:  10160613          addi                    a2,a2,257
0x000189ee:  05c2              slli                    a1,a1,16
0x000189f0:  0642              slli                    a2,a2,16
0x000189f2:  eff58593          addi                    a1,a1,-257
0x000189f6:  10160613          addi                    a2,a2,257
0x000189fa:  05c2              slli                    a1,a1,16
0x000189fc:  063e              slli                    a2,a2,15
0x000189fe:  eff58593          addi                    a1,a1,-257
0x00018a02:  08060613          addi                    a2,a2,128
0x00018a06:  6798              ld                      a4,8(a5)
0x00018a08:  883e              mv                      a6,a5
0x00018a0a:  07a1              addi                    a5,a5,8
0x00018a0c:  00b706b3          add                     a3,a4,a1
0x00018a10:  fff74713          not                     a4,a4
0x00018a14:  8f75              and                     a4,a4,a3
0x00018a16:  00c776b3          and                     a3,a4,a2
0x00018a1a:  d6f5              beqz                    a3,-20                  # 0x18a06

----------------
IN: __strlen
0x00018a1c:  08077693          andi                    a3,a4,128
0x00018a20:  ee85              bnez                    a3,56                   # 0x18a58

----------------
IN: __strlen
0x00018a22:  03071793          slli                    a5,a4,48
0x00018a26:  0807c263          bltz                    a5,132                  # 0x18aaa

----------------
IN: __strlen
0x00018a2a:  02871793          slli                    a5,a4,40
0x00018a2e:  0807c163          bltz                    a5,130                  # 0x18ab0

----------------
IN: __strlen
0x00018a32:  02071793          slli                    a5,a4,32
0x00018a36:  0807c063          bltz                    a5,128                  # 0x18ab6

----------------
IN: __strlen
0x00018a3a:  01871793          slli                    a5,a4,24
0x00018a3e:  0607cf63          bltz                    a5,126                  # 0x18abc

----------------
IN: __strlen
0x00018a42:  01071793          slli                    a5,a4,16
0x00018a46:  0607ce63          bltz                    a5,124                  # 0x18ac2

----------------
IN: __strlen
0x00018a4a:  4785              addi                    a5,zero,1
0x00018a4c:  17de              slli                    a5,a5,55
0x00018a4e:  8f7d              and                     a4,a4,a5
0x00018a50:  00173793          seqz                    a5,a4
0x00018a54:  97c2              add                     a5,a5,a6
0x00018a56:  07b9              addi                    a5,a5,14
0x00018a58:  40a78533          sub                     a0,a5,a0
0x00018a5c:  6422              ld                      s0,8(sp)
0x00018a5e:  0141              addi                    sp,sp,16
0x00018a60:  8082              ret                     

----------------
IN: strncmp
0x00025562:  24d59b63          bne                     a1,a3,598               # 0x257b8

----------------
IN: _dl_non_dynamic_init
0x0001b420:  4681              mv                      a3,zero
0x0001b422:  4601              mv                      a2,zero
0x0001b424:  00039597          auipc                   a1,57                   # 0x54424
0x0001b428:  5e458593          addi                    a1,a1,1508
0x0001b42c:  1630d0ef          jal                     ra,55650                # 0x28d8e

----------------
IN: _dl_init_paths
0x00028d8e:  7179              addi                    sp,sp,-48
0x00028d90:  f022              sd                      s0,32(sp)
0x00028d92:  e84a              sd                      s2,16(sp)
0x00028d94:  e44e              sd                      s3,8(sp)
0x00028d96:  e052              sd                      s4,0(sp)
0x00028d98:  f406              sd                      ra,40(sp)
0x00028d9a:  ec26              sd                      s1,24(sp)
0x00028d9c:  1800              addi                    s0,sp,48
0x00028d9e:  8a2a              mv                      s4,a0
0x00028da0:  02800513          addi                    a0,zero,40
0x00028da4:  892e              mv                      s2,a1
0x00028da6:  00059997          auipc                   s3,89                   # 0x81da6
0x00028daa:  9a298993          addi                    s3,s3,-1630
0x00028dae:  862ee0ef          jal                     ra,-73630               # 0x16e10

----------------
IN: __malloc
0x00016e28:  0c09c363          bltz                    s3,198                  # 0x16eee

----------------
IN: __malloc
0x00016e4a:  0006b717          auipc                   a4,107                  # 0x81e4a
0x00016e4e:  7ae73703          ld                      a4,1966(a4)
0x00016e52:  0ce96a63          bgtu                    a4,s2,212               # 0x16f26

----------------
IN: _dl_init_paths
0x00028db2:  00a9b023          sd                      a0,0(s3)
0x00028db6:  20050463          beqz                    a0,520                  # 0x28fbe

----------------
IN: _dl_init_paths
0x00028dba:  84aa              mv                      s1,a0
0x00028dbc:  14000513          addi                    a0,zero,320
0x00028dc0:  850ee0ef          jal                     ra,-73648               # 0x16e10

----------------
IN: _dl_init_paths
0x00028dc4:  e088              sd                      a0,0(s1)
0x00028dc6:  87aa              mv                      a5,a0
0x00028dc8:  1e050263          beqz                    a0,484                  # 0x28fac

----------------
IN: _dl_init_paths
0x00028dcc:  00031697          auipc                   a3,49                   # 0x59dcc
0x00028dd0:  6cc68693          addi                    a3,a3,1740
0x00028dd4:  00059717          auipc                   a4,89                   # 0x81dd4
0x00028dd8:  96072e23          sw                      zero,-1668(a4)
0x00028ddc:  00059717          auipc                   a4,89                   # 0x81ddc
0x00028de0:  1b473703          ld                      a4,436(a4)
0x00028de4:  ed14              sd                      a3,24(a0)
0x00028de6:  0002c897          auipc                   a7,44                   # 0x54de6
0x00028dea:  7f288893          addi                    a7,a7,2034
0x00028dee:  46dd              addi                    a3,zero,23
0x00028df0:  e308              sd                      a0,0(a4)
0x00028df2:  f114              sd                      a3,32(a0)
0x00028df4:  01153423          sd                      a7,8(a0)
0x00028df8:  00053823          sd                      zero,16(a0)
0x00028dfc:  02052423          sw                      zero,40(a0)
0x00028e00:  0f050813          addi                    a6,a0,240
0x00028e04:  00848713          addi                    a4,s1,8
0x00028e08:  00031597          auipc                   a1,49                   # 0x59e08
0x00028e0c:  6d858593          addi                    a1,a1,1752
0x00028e10:  02f00513          addi                    a0,zero,47
0x00028e14:  00031697          auipc                   a3,49                   # 0x59e14
0x00028e18:  69c68693          addi                    a3,a3,1692
0x00028e1c:  02f00313          addi                    t1,zero,47
0x00028e20:  6590              ld                      a2,8(a1)
0x00028e22:  05078793          addi                    a5,a5,80
0x00028e26:  e31c              sd                      a5,0(a4)
0x00028e28:  faf7b823          sd                      a5,-80(a5)
0x00028e2c:  0117b423          sd                      a7,8(a5)
0x00028e30:  0007b823          sd                      zero,16(a5)
0x00028e34:  ef94              sd                      a3,24(a5)
0x00028e36:  f390              sd                      a2,32(a5)
0x00028e38:  0721              addi                    a4,a4,8
0x00028e3a:  14651963          bne                     a0,t1,338               # 0x28f8c

----------------
IN: _dl_init_paths
0x00028e3e:  0207a423          sw                      zero,40(a5)
0x00028e42:  00f80863          beq                     a6,a5,16                # 0x28e52

----------------
IN: _dl_init_paths
0x00028e46:  0605              addi                    a2,a2,1
0x00028e48:  96b2              add                     a3,a3,a2
0x00028e4a:  0006c503          lbu                     a0,0(a3)
0x00028e4e:  05a1              addi                    a1,a1,8
0x00028e50:  bfc1              j                       -48                     # 0x28e20

----------------
IN: _dl_init_paths
0x00028e20:  6590              ld                      a2,8(a1)
0x00028e22:  05078793          addi                    a5,a5,80
0x00028e26:  e31c              sd                      a5,0(a4)
0x00028e28:  faf7b823          sd                      a5,-80(a5)
0x00028e2c:  0117b423          sd                      a7,8(a5)
0x00028e30:  0007b823          sd                      zero,16(a5)
0x00028e34:  ef94              sd                      a3,24(a5)
0x00028e36:  f390              sd                      a2,32(a5)
0x00028e38:  0721              addi                    a4,a4,8
0x00028e3a:  14651963          bne                     a0,t1,338               # 0x28f8c

----------------
IN: _dl_init_paths
0x00028e52:  00059797          auipc                   a5,89                   # 0x81e52
0x00028e56:  1967b783          ld                      a5,406(a5)
0x00028e5a:  6384              ld                      s1,0(a5)
0x00028e5c:  00073023          sd                      zero,0(a4)
0x00028e60:  476d              addi                    a4,zero,27
0x00028e62:  3344d783          lhu                     a5,820(s1)
0x00028e66:  00060697          auipc                   a3,96                   # 0x88e66
0x00028e6a:  98e6b923          sd                      a4,-1646(a3)
0x00028e6e:  00083023          sd                      zero,0(a6)
0x00028e72:  8b8d              andi                    a5,a5,3
0x00028e74:  4709              addi                    a4,zero,2
0x00028e76:  14e78963          beq                     a5,a4,338               # 0x28fc8

----------------
IN: _dl_init_paths
0x00028e7a:  1284b783          ld                      a5,296(s1)
0x00028e7e:  c7e9              beqz                    a5,202                  # 0x28f48

----------------
IN: _dl_init_paths
0x00028f48:  7cdc              ld                      a5,184(s1)
0x00028f4a:  577d              addi                    a4,zero,-1
0x00028f4c:  3ce4b423          sd                      a4,968(s1)
0x00028f50:  c39d              beqz                    a5,38                   # 0x28f76

----------------
IN: _dl_init_paths
0x00028f76:  34e4b023          sd                      a4,832(s1)
0x00028f7a:  b73d              j                       -210                    # 0x28ea8

----------------
IN: _dl_init_paths
0x00028ea8:  000a0563          beqz                    s4,10                   # 0x28eb2

----------------
IN: _dl_init_paths
0x00028eb2:  57fd              addi                    a5,zero,-1
0x00028eb4:  00f9b823          sd                      a5,16(s3)
0x00028eb8:  fd040113          addi                    sp,s0,-48
0x00028ebc:  70a2              ld                      ra,40(sp)
0x00028ebe:  7402              ld                      s0,32(sp)
0x00028ec0:  64e2              ld                      s1,24(sp)
0x00028ec2:  6942              ld                      s2,16(sp)
0x00028ec4:  69a2              ld                      s3,8(sp)
0x00028ec6:  6a02              ld                      s4,0(sp)
0x00028ec8:  6145              addi                    sp,sp,48
0x00028eca:  8082              ret                     

----------------
IN: _dl_non_dynamic_init
0x0001b430:  070b3783          ld                      a5,112(s6)
0x0001b434:  00039517          auipc                   a0,57                   # 0x54434
0x0001b438:  5e450513          addi                    a0,a0,1508
0x0001b43c:  06fb3423          sd                      a5,104(s6)
0x0001b440:  4e4000ef          jal                     ra,1252                 # 0x1b924

----------------
IN: __strlen
0x00018ab6:  00b80793          addi                    a5,a6,11
0x00018aba:  bf79              j                       -98                     # 0x18a58

----------------
IN: __strlen
0x00018a58:  40a78533          sub                     a0,a5,a0
0x00018a5c:  6422              ld                      s0,8(sp)
0x00018a5e:  0141              addi                    sp,sp,16
0x00018a60:  8082              ret                     

----------------
IN: _dl_non_dynamic_init
0x0001b444:  4785              addi                    a5,zero,1
0x0001b446:  c509              beqz                    a0,10                   # 0x1b450

----------------
IN: _dl_non_dynamic_init
0x0001b450:  00039517          auipc                   a0,57                   # 0x54450
0x0001b454:  5d850513          addi                    a0,a0,1496
0x0001b458:  06fb2c23          sw                      a5,120(s6)
0x0001b45c:  4c8000ef          jal                     ra,1224                 # 0x1b924

----------------
IN: _dl_non_dynamic_init
0x0001b460:  4781              mv                      a5,zero
0x0001b462:  c509              beqz                    a0,10                   # 0x1b46c

----------------
IN: _dl_non_dynamic_init
0x0001b46c:  00039517          auipc                   a0,57                   # 0x5446c
0x0001b470:  5cc50513          addi                    a0,a0,1484
0x0001b474:  06fb2e23          sw                      a5,124(s6)
0x0001b478:  4ac000ef          jal                     ra,1196                 # 0x1b924

----------------
IN: _dl_non_dynamic_init
0x0001b47c:  4785              addi                    a5,zero,1
0x0001b47e:  c509              beqz                    a0,10                   # 0x1b488

----------------
IN: _dl_non_dynamic_init
0x0001b488:  008b3503          ld                      a0,8(s6)
0x0001b48c:  08fb2023          sw                      a5,128(s6)
0x0001b490:  c509              beqz                    a0,10                   # 0x1b49a

----------------
IN: _dl_non_dynamic_init
0x0001b49a:  048b3703          ld                      a4,72(s6)
0x0001b49e:  040b3783          ld                      a5,64(s6)
0x0001b4a2:  6474e637          lui                     a2,411470
0x0001b4a6:  00371693          slli                    a3,a4,3
0x0001b4aa:  8e99              sub                     a3,a3,a4
0x0001b4ac:  068e              slli                    a3,a3,3
0x0001b4ae:  6474e5b7          lui                     a1,411470
0x0001b4b2:  96be              add                     a3,a3,a5
0x0001b4b4:  4501              mv                      a0,zero
0x0001b4b6:  4801              mv                      a6,zero
0x0001b4b8:  55160613          addi                    a2,a2,1361
0x0001b4bc:  55258593          addi                    a1,a1,1362
0x0001b4c0:  04d7f763          bleu                    a3,a5,78                # 0x1b50e

----------------
IN: _dl_non_dynamic_init
0x0001b4c4:  e0d2              sd                      s4,64(sp)
0x0001b4c6:  fc56              sd                      s5,56(sp)
0x0001b4c8:  a821              j                       24                      # 0x1b4e0

----------------
IN: _dl_non_dynamic_init
0x0001b4e0:  4398              lw                      a4,0(a5)
0x0001b4e2:  fec714e3          bne                     a4,a2,-24               # 0x1b4ca

----------------
IN: _dl_non_dynamic_init
0x0001b4ca:  00b71763          bne                     a4,a1,14                # 0x1b4d8

----------------
IN: _dl_non_dynamic_init
0x0001b4d8:  03878793          addi                    a5,a5,56
0x0001b4dc:  00d7fc63          bleu                    a3,a5,24                # 0x1b4f4

----------------
IN: _dl_non_dynamic_init
0x0001b4e6:  0047a983          lw                      s3,4(a5)
0x0001b4ea:  03878793          addi                    a5,a5,56
0x0001b4ee:  4805              addi                    a6,zero,1
0x0001b4f0:  fed7e8e3          bgtu                    a3,a5,-16               # 0x1b4e0

----------------
IN: _dl_non_dynamic_init
0x0001b4ce:  0107ba03          ld                      s4,16(a5)
0x0001b4d2:  0287ba83          ld                      s5,40(a5)
0x0001b4d6:  4505              addi                    a0,zero,1
0x0001b4d8:  03878793          addi                    a5,a5,56
0x0001b4dc:  00d7fc63          bleu                    a3,a5,24                # 0x1b4f4

----------------
IN: _dl_non_dynamic_init
0x0001b4f4:  c509              beqz                    a0,10                   # 0x1b4fe

----------------
IN: _dl_non_dynamic_init
0x0001b4f6:  47593823          sd                      s5,1136(s2)
0x0001b4fa:  47493423          sd                      s4,1128(s2)
0x0001b4fe:  10080c63          beqz                    a6,280                  # 0x1b616

----------------
IN: _dl_non_dynamic_init
0x0001b502:  6a06              ld                      s4,64(sp)
0x0001b504:  7ae2              ld                      s5,56(sp)
0x0001b506:  00068797          auipc                   a5,104                  # 0x83506
0x0001b50a:  9d37ad23          sw                      s3,-1574(a5)
0x0001b50e:  00067797          auipc                   a5,103                  # 0x8250e
0x0001b512:  8e27b783          ld                      a5,-1822(a5)
0x0001b516:  c391              beqz                    a5,4                    # 0x1b51a

----------------
IN: _dl_non_dynamic_init
0x0001b518:  9782              jalr                    ra,a5,0

----------------
IN: _dl_find_object_init
0x000480e8:  7179              addi                    sp,sp,-48
0x000480ea:  f022              sd                      s0,32(sp)
0x000480ec:  f406              sd                      ra,40(sp)
0x000480ee:  ec26              sd                      s1,24(sp)
0x000480f0:  e84a              sd                      s2,16(sp)
0x000480f2:  e44e              sd                      s3,8(sp)
0x000480f4:  1800              addi                    s0,sp,48
0x000480f6:  0003a797          auipc                   a5,58                   # 0x820f6
0x000480fa:  ef27b783          ld                      a5,-270(a5)
0x000480fe:  6388              ld                      a0,0(a5)
0x00048100:  33654783          lbu                     a5,822(a0)
0x00048104:  8ba1              andi                    a5,a5,8
0x00048106:  0e079963          bnez                    a5,242                  # 0x481f8

----------------
IN: _dl_find_object_init
0x0004810a:  0003a997          auipc                   s3,58                   # 0x8210a
0x0004810e:  a0698993          addi                    s3,s3,-1530
0x00048112:  57fd              addi                    a5,zero,-1
0x00048114:  00f9b823          sd                      a5,16(s3)
0x00048118:  00f9bc23          sd                      a5,24(s3)
0x0004811c:  b47ff0ef          jal                     ra,-1210                # 0x47c62

----------------
IN: _dlfo_process_initial
0x00047c62:  711d              addi                    sp,sp,-96
0x00047c64:  e8a2              sd                      s0,80(sp)
0x00047c66:  e4a6              sd                      s1,72(sp)
0x00047c68:  e0ca              sd                      s2,64(sp)
0x00047c6a:  ec86              sd                      ra,88(sp)
0x00047c6c:  fc4e              sd                      s3,56(sp)
0x00047c6e:  f852              sd                      s4,48(sp)
0x00047c70:  f456              sd                      s5,40(sp)
0x00047c72:  1080              addi                    s0,sp,96
0x00047c74:  0003a497          auipc                   s1,58                   # 0x81c74
0x00047c78:  3744b483          ld                      s1,884(s1)
0x00047c7c:  0004b903          ld                      s2,0(s1)
0x00047c80:  33694783          lbu                     a5,822(s2)
0x00047c84:  8ba1              andi                    a5,a5,8
0x00047c86:  cfd9              beqz                    a5,158                  # 0x47d24

----------------
IN: _dlfo_process_initial
0x00047d24:  fa040593          addi                    a1,s0,-96
0x00047d28:  854a              mv                      a0,s2
0x00047d2a:  ecfff0ef          jal                     ra,-306                 # 0x47bf8

----------------
IN: _dl_find_object_from_map
0x00047bf8:  1141              addi                    sp,sp,-16
0x00047bfa:  e422              sd                      s0,8(sp)
0x00047bfc:  0800              addi                    s0,sp,16
0x00047bfe:  36853783          ld                      a5,872(a0)
0x00047c02:  e19c              sd                      a5,0(a1)
0x00047c04:  37053783          ld                      a5,880(a0)
0x00047c08:  00858713          addi                    a4,a1,8
0x00047c0c:  e31c              sd                      a5,0(a4)
0x00047c0e:  01058793          addi                    a5,a1,16
0x00047c12:  e388              sd                      a0,0(a5)
0x00047c14:  2d055703          lhu                     a4,720(a0)
0x00047c18:  2c053783          ld                      a5,704(a0)
0x00047c1c:  00371693          slli                    a3,a4,3
0x00047c20:  8e99              sub                     a3,a3,a4
0x00047c22:  068e              slli                    a3,a3,3
0x00047c24:  96be              add                     a3,a3,a5
0x00047c26:  02d7f763          bleu                    a3,a5,46                # 0x47c54

----------------
IN: _dl_find_object_from_map
0x00047c2a:  6474e637          lui                     a2,411470
0x00047c2e:  55060613          addi                    a2,a2,1360
0x00047c32:  a029              j                       10                      # 0x47c3c

----------------
IN: _dl_find_object_from_map
0x00047c3c:  4398              lw                      a4,0(a5)
0x00047c3e:  fec71be3          bne                     a4,a2,-10               # 0x47c34

----------------
IN: _dl_find_object_from_map
0x00047c34:  03878793          addi                    a5,a5,56
0x00047c38:  00d7fe63          bleu                    a3,a5,28                # 0x47c54

----------------
IN: _dl_find_object_from_map
0x00047c54:  01858793          addi                    a5,a1,24
0x00047c58:  0007b023          sd                      zero,0(a5)
0x00047c5c:  6422              ld                      s0,8(sp)
0x00047c5e:  0141              addi                    sp,sp,16
0x00047c60:  8082              ret                     

----------------
IN: _dlfo_process_initial
0x00047d2e:  2d095703          lhu                     a4,720(s2)
0x00047d32:  2c093783          ld                      a5,704(s2)
0x00047d36:  00371693          slli                    a3,a4,3
0x00047d3a:  8e99              sub                     a3,a3,a4
0x00047d3c:  068e              slli                    a3,a3,3
0x00047d3e:  96be              add                     a3,a3,a5
0x00047d40:  08d7f063          bleu                    a3,a5,128               # 0x47dc0

----------------
IN: _dlfo_process_initial
0x00047d44:  0003aa97          auipc                   s5,58                   # 0x81d44
0x00047d48:  dcca8a93          addi                    s5,s5,-564
0x00047d4c:  000ab803          ld                      a6,0(s5)
0x00047d50:  4981              mv                      s3,zero
0x00047d52:  4585              addi                    a1,zero,1
0x00047d54:  a029              j                       10                      # 0x47d5e

----------------
IN: _dlfo_process_initial
0x00047d5e:  4398              lw                      a4,0(a5)
0x00047d60:  feb71be3          bne                     a4,a1,-10               # 0x47d56

----------------
IN: _dlfo_process_initial
0x00047d56:  03878793          addi                    a5,a5,56
0x00047d5a:  04d7f563          bleu                    a3,a5,74                # 0x47da4

----------------
IN: _dlfo_process_initial
0x00047d64:  00599713          slli                    a4,s3,5
0x00047d68:  9742              add                     a4,a4,a6
0x00047d6a:  02080863          beqz                    a6,48                   # 0x47d9a

----------------
IN: _dlfo_process_initial
0x00047d9a:  03878793          addi                    a5,a5,56
0x00047d9e:  0985              addi                    s3,s3,1
0x00047da0:  fad7efe3          bgtu                    a3,a5,-66               # 0x47d5e

----------------
IN: _dlfo_process_initial
0x00047da4:  0003a797          auipc                   a5,58                   # 0x81da4
0x00047da8:  0a47b783          ld                      a5,164(a5)
0x00047dac:  0007ba03          ld                      s4,0(a5)
0x00047db0:  f00a0be3          beqz                    s4,-234                 # 0x47cc6

----------------
IN: _dlfo_process_initial
0x00047db4:  6084              ld                      s1,0(s1)
0x00047db6:  c099              beqz                    s1,6                    # 0x47dbc

----------------
IN: _dlfo_process_initial
0x00047db8:  f05a              sd                      s6,32(sp)
0x00047dba:  b5f5              j                       -276                    # 0x47ca6

----------------
IN: _dlfo_process_initial
0x00047ca6:  4a01              mv                      s4,zero
0x00047ca8:  4b05              addi                    s6,zero,1
0x00047caa:  00990563          beq                     s2,s1,10                # 0x47cb4

----------------
IN: _dlfo_process_initial
0x00047cb4:  6c84              ld                      s1,24(s1)
0x00047cb6:  f8f5              bnez                    s1,-12                  # 0x47caa

----------------
IN: _dlfo_process_initial
0x00047caa:  00990563          beq                     s2,s1,10                # 0x47cb4

----------------
IN: _dlfo_process_initial
0x00047cae:  749c              ld                      a5,40(s1)
0x00047cb0:  02978763          beq                     a5,s1,46                # 0x47cde

----------------
IN: _dlfo_process_initial
0x00047cde:  3344d783          lhu                     a5,820(s1)
0x00047ce2:  8b8d              andi                    a5,a5,3
0x00047ce4:  03678563          beq                     a5,s6,42                # 0x47d0e

----------------
IN: _dlfo_process_initial
0x00047d0e:  000ab783          ld                      a5,0(s5)
0x00047d12:  c799              beqz                    a5,14                   # 0x47d20

----------------
IN: _dlfo_process_initial
0x00047d20:  0985              addi                    s3,s3,1
0x00047d22:  bf49              j                       -110                    # 0x47cb4

----------------
IN: _dlfo_process_initial
0x00047cb8:  7b02              ld                      s6,32(sp)
0x00047cba:  a031              j                       12                      # 0x47cc6

----------------
IN: _dlfo_process_initial
0x00047cc6:  60e6              ld                      ra,88(sp)
0x00047cc8:  6446              ld                      s0,80(sp)
0x00047cca:  013ab423          sd                      s3,8(s5)
0x00047cce:  64a6              ld                      s1,72(sp)
0x00047cd0:  6906              ld                      s2,64(sp)
0x00047cd2:  79e2              ld                      s3,56(sp)
0x00047cd4:  7aa2              ld                      s5,40(sp)
0x00047cd6:  8552              mv                      a0,s4
0x00047cd8:  7a42              ld                      s4,48(sp)
0x00047cda:  6125              addi                    sp,sp,96
0x00047cdc:  8082              ret                     

----------------
IN: _dl_find_object_init
0x00048120:  0089b783          ld                      a5,8(s3)
0x00048124:  84aa              mv                      s1,a0
0x00048126:  00579513          slli                    a0,a5,5
0x0004812a:  ce7ce0ef          jal                     ra,-201498              # 0x16e10

----------------
IN: _dl_find_object_init
0x0004812e:  00a9b023          sd                      a0,0(s3)
0x00048132:  892a              mv                      s2,a0
0x00048134:  e0a9              bnez                    s1,66                   # 0x48176

----------------
IN: _dl_find_object_init
0x00048136:  0e050763          beqz                    a0,238                  # 0x48224

----------------
IN: _dl_find_object_init
0x0004813a:  0003a797          auipc                   a5,58                   # 0x8213a
0x0004813e:  9c07bf23          sd                      zero,-1570(a5)
0x00048142:  b21ff0ef          jal                     ra,-1248                # 0x47c62

----------------
IN: _dlfo_process_initial
0x00047d6e:  fb043503          ld                      a0,-80(s0)
0x00047d72:  fb843603          ld                      a2,-72(s0)
0x00047d76:  fa843883          ld                      a7,-88(s0)
0x00047d7a:  fa043303          ld                      t1,-96(s0)
0x00047d7e:  eb08              sd                      a0,16(a4)
0x00047d80:  01173423          sd                      a7,8(a4)
0x00047d84:  00673023          sd                      t1,0(a4)
0x00047d88:  ef10              sd                      a2,24(a4)
0x00047d8a:  00093503          ld                      a0,0(s2)
0x00047d8e:  6b90              ld                      a2,16(a5)
0x00047d90:  962a              add                     a2,a2,a0
0x00047d92:  e310              sd                      a2,0(a4)
0x00047d94:  7788              ld                      a0,40(a5)
0x00047d96:  962a              add                     a2,a2,a0
0x00047d98:  e710              sd                      a2,8(a4)
0x00047d9a:  03878793          addi                    a5,a5,56
0x00047d9e:  0985              addi                    s3,s3,1
0x00047da0:  fad7efe3          bgtu                    a3,a5,-66               # 0x47d5e

----------------
IN: _dlfo_process_initial
0x00047d14:  00599593          slli                    a1,s3,5
0x00047d18:  95be              add                     a1,a1,a5
0x00047d1a:  8526              mv                      a0,s1
0x00047d1c:  eddff0ef          jal                     ra,-292                 # 0x47bf8

----------------
IN: _dl_find_object_from_map
0x00047c42:  6118              ld                      a4,0(a0)
0x00047c44:  6b9c              ld                      a5,16(a5)
0x00047c46:  97ba              add                     a5,a5,a4
0x00047c48:  01858713          addi                    a4,a1,24
0x00047c4c:  e31c              sd                      a5,0(a4)
0x00047c4e:  6422              ld                      s0,8(sp)
0x00047c50:  0141              addi                    sp,sp,16
0x00047c52:  8082              ret                     

----------------
IN: _dl_find_object_init
0x00048146:  0089b483          ld                      s1,8(s3)
0x0004814a:  cc99              beqz                    s1,30                   # 0x48168

----------------
IN: _dl_find_object_init
0x0004814c:  4785              addi                    a5,zero,1
0x0004814e:  00f48963          beq                     s1,a5,18                # 0x48160

----------------
IN: _dl_find_object_init
0x00048152:  85a6              mv                      a1,s1
0x00048154:  14fd              addi                    s1,s1,-1
0x00048156:  854a              mv                      a0,s2
0x00048158:  0496              slli                    s1,s1,5
0x0004815a:  c73ff0ef          jal                     ra,-910                 # 0x47dcc

----------------
IN: _dlfo_sort_mappings.part.0
0x00047dcc:  1141              addi                    sp,sp,-16
0x00047dce:  e422              sd                      s0,8(sp)
0x00047dd0:  0800              addi                    s0,sp,16
0x00047dd2:  4785              addi                    a5,zero,1
0x00047dd4:  06f58c63          beq                     a1,a5,120               # 0x47e4c

----------------
IN: _dlfo_sort_mappings.part.0
0x00047dd8:  fff58293          addi                    t0,a1,-1
0x00047ddc:  88aa              mv                      a7,a0
0x00047dde:  4301              mv                      t1,zero
0x00047de0:  861a              mv                      a2,t1
0x00047de2:  0305              addi                    t1,t1,1
0x00047de4:  0008b803          ld                      a6,0(a7)
0x00047de8:  06b37563          bleu                    a1,t1,106               # 0x47e52

----------------
IN: _dlfo_sort_mappings.part.0
0x00047dec:  8746              mv                      a4,a7
0x00047dee:  879a              mv                      a5,t1
0x00047df0:  7314              ld                      a3,32(a4)
0x00047df2:  02070713          addi                    a4,a4,32
0x00047df6:  0106f463          bleu                    a6,a3,8                 # 0x47dfe

----------------
IN: _dlfo_sort_mappings.part.0
0x00047dfe:  0785              addi                    a5,a5,1
0x00047e00:  fef598e3          bne                     a1,a5,-16               # 0x47df0

----------------
IN: _dlfo_sort_mappings.part.0
0x00047df0:  7314              ld                      a3,32(a4)
0x00047df2:  02070713          addi                    a4,a4,32
0x00047df6:  0106f463          bleu                    a6,a3,8                 # 0x47dfe

----------------
IN: _dlfo_sort_mappings.part.0
0x00047e04:  00561793          slli                    a5,a2,5
0x00047e08:  97aa              add                     a5,a5,a0
0x00047e0a:  0007b803          ld                      a6,0(a5)
0x00047e0e:  0008bf83          ld                      t6,0(a7)
0x00047e12:  0088bf03          ld                      t5,8(a7)
0x00047e16:  0108be83          ld                      t4,16(a7)
0x00047e1a:  0188be03          ld                      t3,24(a7)
0x00047e1e:  6790              ld                      a2,8(a5)
0x00047e20:  6b94              ld                      a3,16(a5)
0x00047e22:  6f98              ld                      a4,24(a5)
0x00047e24:  01f7b023          sd                      t6,0(a5)
0x00047e28:  01e7b423          sd                      t5,8(a5)
0x00047e2c:  01d7b823          sd                      t4,16(a5)
0x00047e30:  01c7bc23          sd                      t3,24(a5)
0x00047e34:  0108b023          sd                      a6,0(a7)
0x00047e38:  00c8b423          sd                      a2,8(a7)
0x00047e3c:  00d8b823          sd                      a3,16(a7)
0x00047e40:  00e8bc23          sd                      a4,24(a7)
0x00047e44:  02088893          addi                    a7,a7,32
0x00047e48:  f8531ce3          bne                     t1,t0,-104              # 0x47de0

----------------
IN: _dlfo_sort_mappings.part.0
0x00047de0:  861a              mv                      a2,t1
0x00047de2:  0305              addi                    t1,t1,1
0x00047de4:  0008b803          ld                      a6,0(a7)
0x00047de8:  06b37563          bleu                    a1,t1,106               # 0x47e52

----------------
IN: _dlfo_sort_mappings.part.0
0x00047e4c:  6422              ld                      s0,8(sp)
0x00047e4e:  0141              addi                    sp,sp,16
0x00047e50:  8082              ret                     

----------------
IN: _dl_find_object_init
0x0004815e:  9926              add                     s2,s2,s1
0x00048160:  00893783          ld                      a5,8(s2)
0x00048164:  02f9b823          sd                      a5,48(s3)
0x00048168:  70a2              ld                      ra,40(sp)
0x0004816a:  7402              ld                      s0,32(sp)
0x0004816c:  64e2              ld                      s1,24(sp)
0x0004816e:  6942              ld                      s2,16(sp)
0x00048170:  69a2              ld                      s3,8(sp)
0x00048172:  6145              addi                    sp,sp,48
0x00048174:  8082              ret                     

----------------
IN: _dl_non_dynamic_init
0x0001b51a:  47093783          ld                      a5,1136(s2)
0x0001b51e:  e7d1              bnez                    a5,140                  # 0x1b5aa

----------------
IN: _dl_non_dynamic_init
0x0001b5aa:  7406              ld                      s0,96(sp)
0x0001b5ac:  70a6              ld                      ra,104(sp)
0x0001b5ae:  64e6              ld                      s1,88(sp)
0x0001b5b0:  6946              ld                      s2,80(sp)
0x0001b5b2:  69a6              ld                      s3,72(sp)
0x0001b5b4:  7b42              ld                      s6,48(sp)
0x0001b5b6:  7ba2              ld                      s7,40(sp)
0x0001b5b8:  00068517          auipc                   a0,104                  # 0x835b8
0x0001b5bc:  9b850513          addi                    a0,a0,-1608
0x0001b5c0:  6165              addi                    sp,sp,112
0x0001b5c2:  4bc1106f          j                       70844                   # 0x2ca7e

----------------
IN: _dl_protect_relro
0x0002ca7e:  1101              addi                    sp,sp,-32
0x0002ca80:  e822              sd                      s0,16(sp)
0x0002ca82:  e426              sd                      s1,8(sp)
0x0002ca84:  ec06              sd                      ra,24(sp)
0x0002ca86:  1000              addi                    s0,sp,32
0x0002ca88:  611c              ld                      a5,0(a0)
0x0002ca8a:  46853683          ld                      a3,1128(a0)
0x0002ca8e:  00055717          auipc                   a4,85                   # 0x81a8e
0x0002ca92:  53273703          ld                      a4,1330(a4)
0x0002ca96:  47053583          ld                      a1,1136(a0)
0x0002ca9a:  6318              ld                      a4,0(a4)
0x0002ca9c:  97b6              add                     a5,a5,a3
0x0002ca9e:  95be              add                     a1,a1,a5
0x0002caa0:  40e00733          neg                     a4,a4
0x0002caa4:  84aa              mv                      s1,a0
0x0002caa6:  8df9              and                     a1,a1,a4
0x0002caa8:  00e7f533          and                     a0,a5,a4
0x0002caac:  00b51763          bne                     a0,a1,14                # 0x2caba

----------------
IN: _dl_protect_relro
0x0002caba:  4605              addi                    a2,zero,1
0x0002cabc:  8d89              sub                     a1,a1,a0
0x0002cabe:  cefec0ef          jal                     ra,-78610               # 0x197ac

----------------
IN: __mprotect
0x000197ac:  0e200893          addi                    a7,zero,226
0x000197b0:  00000073          ecall                   

----------------
IN: __mprotect
0x000197b4:  78fd              lui                     a7,-1
0x000197b6:  00a8e363          bgtu                    a0,a7,6                 # 0x197bc

----------------
IN: __mprotect
0x000197ba:  8082              ret                     

----------------
IN: _dl_protect_relro
0x0002cac2:  fe0557e3          bgez                    a0,-18                  # 0x2cab0

----------------
IN: _dl_protect_relro
0x0002cab0:  60e2              ld                      ra,24(sp)
0x0002cab2:  6442              ld                      s0,16(sp)
0x0002cab4:  64a2              ld                      s1,8(sp)
0x0002cab6:  6105              addi                    sp,sp,32
0x0002cab8:  8082              ret                     

----------------
IN: __libc_init_first
0x0001b824:  7402              ld                      s0,32(sp)
0x0001b826:  70a2              ld                      ra,40(sp)
0x0001b828:  864e              mv                      a2,s3
0x0001b82a:  85ca              mv                      a1,s2
0x0001b82c:  69a2              ld                      s3,8(sp)
0x0001b82e:  6942              ld                      s2,16(sp)
0x0001b830:  8526              mv                      a0,s1
0x0001b832:  64e2              ld                      s1,24(sp)
0x0001b834:  6145              addi                    sp,sp,48
0x0001b836:  5670b06f          j                       48486                   # 0x2759c

----------------
IN: __init_misc
0x0002759c:  c1b1              beqz                    a1,68                   # 0x275e0

----------------
IN: __init_misc
0x0002759e:  1101              addi                    sp,sp,-32
0x000275a0:  e822              sd                      s0,16(sp)
0x000275a2:  e426              sd                      s1,8(sp)
0x000275a4:  e04a              sd                      s2,0(sp)
0x000275a6:  ec06              sd                      ra,24(sp)
0x000275a8:  1000              addi                    s0,sp,32
0x000275aa:  0005b903          ld                      s2,0(a1)
0x000275ae:  84ae              mv                      s1,a1
0x000275b0:  02090263          beqz                    s2,36                   # 0x275d4

----------------
IN: __init_misc
0x000275b4:  02f00593          addi                    a1,zero,47
0x000275b8:  854a              mv                      a0,s2
0x000275ba:  b5efe0ef          jal                     ra,-7330                # 0x25918

----------------
IN: strrchr
0x00025918:  1101              addi                    sp,sp,-32
0x0002591a:  e822              sd                      s0,16(sp)
0x0002591c:  e426              sd                      s1,8(sp)
0x0002591e:  e04a              sd                      s2,0(sp)
0x00025920:  ec06              sd                      ra,24(sp)
0x00025922:  1000              addi                    s0,sp,32
0x00025924:  84aa              mv                      s1,a0
0x00025926:  892e              mv                      s2,a1
0x00025928:  876f30ef          jal                     ra,-53130               # 0x1899e

----------------
IN: strrchr
0x0002592c:  6442              ld                      s0,16(sp)
0x0002592e:  60e2              ld                      ra,24(sp)
0x00025930:  00150613          addi                    a2,a0,1
0x00025934:  85ca              mv                      a1,s2
0x00025936:  8526              mv                      a0,s1
0x00025938:  6902              ld                      s2,0(sp)
0x0002593a:  64a2              ld                      s1,8(sp)
0x0002593c:  6105              addi                    sp,sp,32
0x0002593e:  4c81b06f          j                       111816                  # 0x40e06

----------------
IN: __memrchr
0x00040e06:  1141              addi                    sp,sp,-16
0x00040e08:  e422              sd                      s0,8(sp)
0x00040e0a:  0800              addi                    s0,sp,16
0x00040e0c:  1c060963          beqz                    a2,466                  # 0x40fde

----------------
IN: __memrchr
0x00040e10:  010107b7          lui                     a5,4112
0x00040e14:  10178793          addi                    a5,a5,257
0x00040e18:  07c2              slli                    a5,a5,16
0x00040e1a:  10178793          addi                    a5,a5,257
0x00040e1e:  07c2              slli                    a5,a5,16
0x00040e20:  10178793          addi                    a5,a5,257
0x00040e24:  0ff5f593          andi                    a1,a1,255
0x00040e28:  02f58e33          mul                     t3,a1,a5
0x00040e2c:  962a              add                     a2,a2,a0
0x00040e2e:  0feff7b7          lui                     a5,65279
0x00040e32:  832a              mv                      t1,a0
0x00040e34:  0792              slli                    a5,a5,4
0x00040e36:  00760513          addi                    a0,a2,7
0x00040e3a:  9961              andi                    a0,a0,-8
0x00040e3c:  eff78793          addi                    a5,a5,-257
0x00040e40:  ff853683          ld                      a3,-8(a0)
0x00040e44:  07c2              slli                    a5,a5,16
0x00040e46:  eff78793          addi                    a5,a5,-257
0x00040e4a:  07be              slli                    a5,a5,15
0x00040e4c:  f7f78793          addi                    a5,a5,-129
0x00040e50:  00de46b3          xor                     a3,t3,a3
0x00040e54:  00f6f733          and                     a4,a3,a5
0x00040e58:  973e              add                     a4,a4,a5
0x00040e5a:  8f55              or                      a4,a4,a3
0x00040e5c:  8a1d              andi                    a2,a2,7
0x00040e5e:  ff850693          addi                    a3,a0,-8
0x00040e62:  8fd9              or                      a5,a5,a4
0x00040e64:  12060663          beqz                    a2,300                  # 0x40f90

----------------
IN: __memrchr
0x00040f90:  fff7c793          not                     a5,a5
0x00040f94:  ee0784e3          beqz                    a5,-280                 # 0x40e7c

----------------
IN: __memrchr
0x00040e7c:  ff837893          andi                    a7,t1,-8
0x00040e80:  15168f63          beq                     a3,a7,350               # 0x40fde

----------------
IN: __memrchr
0x00040e84:  feff0637          lui                     a2,-4112
0x00040e88:  eff60613          addi                    a2,a2,-257
0x00040e8c:  f01016b7          lui                     a3,-65279
0x00040e90:  ff053703          ld                      a4,-16(a0)
0x00040e94:  0642              slli                    a2,a2,16
0x00040e96:  0692              slli                    a3,a3,4
0x00040e98:  eff60613          addi                    a2,a2,-257
0x00040e9c:  10168693          addi                    a3,a3,257
0x00040ea0:  0642              slli                    a2,a2,16
0x00040ea2:  06c2              slli                    a3,a3,16
0x00040ea4:  01c74733          xor                     a4,a4,t3
0x00040ea8:  eff60613          addi                    a2,a2,-257
0x00040eac:  10168693          addi                    a3,a3,257
0x00040eb0:  fff74593          not                     a1,a4
0x00040eb4:  00c707b3          add                     a5,a4,a2
0x00040eb8:  06be              slli                    a3,a3,15
0x00040eba:  8fed              and                     a5,a5,a1
0x00040ebc:  08068693          addi                    a3,a3,128
0x00040ec0:  ff050593          addi                    a1,a0,-16
0x00040ec4:  8ff5              and                     a5,a5,a3
0x00040ec6:  02b88263          beq                     a7,a1,36                # 0x40eea

----------------
IN: __memrchr
0x00040eea:  feff07b7          lui                     a5,-4112
0x00040eee:  eff78793          addi                    a5,a5,-257
0x00040ef2:  f01016b7          lui                     a3,-65279
0x00040ef6:  07c2              slli                    a5,a5,16
0x00040ef8:  0692              slli                    a3,a3,4
0x00040efa:  eff78793          addi                    a5,a5,-257
0x00040efe:  10168693          addi                    a3,a3,257
0x00040f02:  07c2              slli                    a5,a5,16
0x00040f04:  06c2              slli                    a3,a3,16
0x00040f06:  eff78793          addi                    a5,a5,-257
0x00040f0a:  10168693          addi                    a3,a3,257
0x00040f0e:  97ba              add                     a5,a5,a4
0x00040f10:  fff74613          not                     a2,a4
0x00040f14:  06be              slli                    a3,a3,15
0x00040f16:  8ff1              and                     a5,a5,a2
0x00040f18:  08068693          addi                    a3,a3,128
0x00040f1c:  8ff5              and                     a5,a5,a3
0x00040f1e:  4501              mv                      a0,zero
0x00040f20:  c7ad              beqz                    a5,106                  # 0x40f8a

----------------
IN: __memrchr
0x00040f22:  0feff7b7          lui                     a5,65279
0x00040f26:  0792              slli                    a5,a5,4
0x00040f28:  eff78793          addi                    a5,a5,-257
0x00040f2c:  07c2              slli                    a5,a5,16
0x00040f2e:  eff78793          addi                    a5,a5,-257
0x00040f32:  07be              slli                    a5,a5,15
0x00040f34:  f7f78793          addi                    a5,a5,-129
0x00040f38:  00f776b3          and                     a3,a4,a5
0x00040f3c:  96be              add                     a3,a3,a5
0x00040f3e:  8f55              or                      a4,a4,a3
0x00040f40:  8fd9              or                      a5,a5,a4
0x00040f42:  fff7c713          not                     a4,a5
0x00040f46:  1007d763          bgez                    a5,270                  # 0x41054

----------------
IN: __memrchr
0x00040f4a:  00871693          slli                    a3,a4,8
0x00040f4e:  4799              addi                    a5,zero,6
0x00040f50:  0206c963          bltz                    a3,50                   # 0x40f82

----------------
IN: __memrchr
0x00040f54:  01071693          slli                    a3,a4,16
0x00040f58:  4795              addi                    a5,zero,5
0x00040f5a:  0206c463          bltz                    a3,40                   # 0x40f82

----------------
IN: __memrchr
0x00040f82:  00f58533          add                     a0,a1,a5
0x00040f86:  04656c63          bgtu                    t1,a0,88                # 0x40fde

----------------
IN: __memrchr
0x00040f8a:  6422              ld                      s0,8(sp)
0x00040f8c:  0141              addi                    sp,sp,16
0x00040f8e:  8082              ret                     

----------------
IN: __init_misc
0x000275be:  c119              beqz                    a0,6                    # 0x275c4

----------------
IN: __init_misc
0x000275c0:  00150913          addi                    s2,a0,1
0x000275c4:  0005c797          auipc                   a5,92                   # 0x835c4
0x000275c8:  f1c78793          addi                    a5,a5,-228
0x000275cc:  0127b023          sd                      s2,0(a5)
0x000275d0:  6098              ld                      a4,0(s1)
0x000275d2:  e798              sd                      a4,8(a5)
0x000275d4:  60e2              ld                      ra,24(sp)
0x000275d6:  6442              ld                      s0,16(sp)
0x000275d8:  64a2              ld                      s1,8(sp)
0x000275da:  6902              ld                      s2,0(sp)
0x000275dc:  6105              addi                    sp,sp,32
0x000275de:  8082              ret                     

----------------
IN: __libc_start_main
0x000108d2:  4601              mv                      a2,zero
0x000108d4:  4581              mv                      a1,zero
0x000108d6:  00000517          auipc                   a0,0                    # 0x108d6
0x000108da:  db650513          addi                    a0,a0,-586
0x000108de:  5cc000ef          jal                     ra,1484                 # 0x10eaa

----------------
IN: __cxa_atexit
0x00010eaa:  1141              addi                    sp,sp,-16
0x00010eac:  e422              sd                      s0,8(sp)
0x00010eae:  0800              addi                    s0,sp,16
0x00010eb0:  6422              ld                      s0,8(sp)
0x00010eb2:  00071697          auipc                   a3,113                  # 0x81eb2
0x00010eb6:  14e68693          addi                    a3,a3,334
0x00010eba:  0141              addi                    sp,sp,16
0x00010ebc:  b715              j                       -220                    # 0x10de0

----------------
IN: __internal_atexit
0x00010de0:  7139              addi                    sp,sp,-64
0x00010de2:  f822              sd                      s0,48(sp)
0x00010de4:  fc06              sd                      ra,56(sp)
0x00010de6:  f426              sd                      s1,40(sp)
0x00010de8:  f04a              sd                      s2,32(sp)
0x00010dea:  ec4e              sd                      s3,24(sp)
0x00010dec:  e852              sd                      s4,16(sp)
0x00010dee:  0080              addi                    s0,sp,64
0x00010df0:  cd49              beqz                    a0,154                  # 0x10e8a

----------------
IN: __internal_atexit
0x00010df2:  0a018493          addi                    s1,gp,160
0x00010df6:  8a2e              mv                      s4,a1
0x00010df8:  892a              mv                      s2,a0
0x00010dfa:  89b2              mv                      s3,a2
0x00010dfc:  4705              addi                    a4,zero,1
0x00010dfe:  00848593          addi                    a1,s1,8
0x00010e02:  1405a7af          lr.w.aq                 a5,(a1)
0x00010e06:  e781              bnez                    a5,8                    # 0x10e0e

----------------
IN: __internal_atexit
0x00010e08:  18e5a62f          sc.w                    a2,a4,(a1)
0x00010e0c:  fa7d              bnez                    a2,-10                  # 0x10e02

----------------
IN: __internal_atexit
0x00010e0e:  2781              sext.w                  a5,a5
0x00010e10:  e7a1              bnez                    a5,72                   # 0x10e58

----------------
IN: __internal_atexit
0x00010e12:  8536              mv                      a0,a3
0x00010e14:  f01ff0ef          jal                     ra,-256                 # 0x10d14

----------------
IN: __new_exitfn
0x00010d14:  4c01c783          lbu                     a5,1216(gp)
0x00010d18:  e3f1              bnez                    a5,196                  # 0x10ddc

----------------
IN: __new_exitfn
0x00010d1a:  1101              addi                    sp,sp,-32
0x00010d1c:  e822              sd                      s0,16(sp)
0x00010d1e:  e426              sd                      s1,8(sp)
0x00010d20:  e04a              sd                      s2,0(sp)
0x00010d22:  ec06              sd                      ra,24(sp)
0x00010d24:  1000              addi                    s0,sp,32
0x00010d26:  00053903          ld                      s2,0(a0)
0x00010d2a:  84aa              mv                      s1,a0
0x00010d2c:  08090863          beqz                    s2,144                  # 0x10dbc

----------------
IN: __new_exitfn
0x00010d30:  85ca              mv                      a1,s2
0x00010d32:  4801              mv                      a6,zero
0x00010d34:  6598              ld                      a4,8(a1)
0x00010d36:  00571793          slli                    a5,a4,5
0x00010d3a:  97ae              add                     a5,a5,a1
0x00010d3c:  cb09              beqz                    a4,18                   # 0x10d4e

----------------
IN: __new_exitfn
0x00010d4e:  619c              ld                      a5,0(a1)
0x00010d50:  0005b423          sd                      zero,8(a1)
0x00010d54:  882e              mv                      a6,a1
0x00010d56:  c7b9              beqz                    a5,78                   # 0x10da4

----------------
IN: __new_exitfn
0x00010da4:  4785              addi                    a5,zero,1
0x00010da6:  01058513          addi                    a0,a1,16
0x00010daa:  e59c              sd                      a5,8(a1)
0x00010dac:  b7d1              j                       -60                     # 0x10d70

----------------
IN: __new_exitfn
0x00010d70:  0a018713          addi                    a4,gp,160
0x00010d74:  631c              ld                      a5,0(a4)
0x00010d76:  60e2              ld                      ra,24(sp)
0x00010d78:  6442              ld                      s0,16(sp)
0x00010d7a:  4685              addi                    a3,zero,1
0x00010d7c:  e114              sd                      a3,0(a0)
0x00010d7e:  0785              addi                    a5,a5,1
0x00010d80:  e31c              sd                      a5,0(a4)
0x00010d82:  64a2              ld                      s1,8(sp)
0x00010d84:  6902              ld                      s2,0(sp)
0x00010d86:  6105              addi                    sp,sp,32
0x00010d88:  8082              ret                     

----------------
IN: __internal_atexit
0x00010e18:  c921              beqz                    a0,80                   # 0x10e68

----------------
IN: __internal_atexit
0x00010e1a:  4791              addi                    a5,zero,4
0x00010e1c:  e11c              sd                      a5,0(a0)
0x00010e1e:  01253423          sd                      s2,8(a0)
0x00010e22:  01453823          sd                      s4,16(a0)
0x00010e26:  01353c23          sd                      s3,24(a0)
0x00010e2a:  4781              mv                      a5,zero
0x00010e2c:  00848713          addi                    a4,s1,8
0x00010e30:  0af727af          amoswap.w.rl            a5,a5,(a4)
0x00010e34:  4705              addi                    a4,zero,1
0x00010e36:  2781              sext.w                  a5,a5
0x00010e38:  00f74b63          bgt                     a5,a4,22                # 0x10e4e

----------------
IN: __internal_atexit
0x00010e3c:  4501              mv                      a0,zero
0x00010e3e:  70e2              ld                      ra,56(sp)
0x00010e40:  7442              ld                      s0,48(sp)
0x00010e42:  74a2              ld                      s1,40(sp)
0x00010e44:  7902              ld                      s2,32(sp)
0x00010e46:  69e2              ld                      s3,24(sp)
0x00010e48:  6a42              ld                      s4,16(sp)
0x00010e4a:  6121              addi                    sp,sp,64
0x00010e4c:  8082              ret                     

----------------
IN: __libc_start_main
0x000108e2:  00073797          auipc                   a5,115                  # 0x838e2
0x000108e6:  be67a783          lw                      a5,-1050(a5)
0x000108ea:  efa5              bnez                    a5,120                  # 0x10962

----------------
IN: __libc_start_main
0x000108ec:  0006e717          auipc                   a4,110                  # 0x7e8ec
0x000108f0:  ab470713          addi                    a4,a4,-1356
0x000108f4:  0006e497          auipc                   s1,110                  # 0x7e8f4
0x000108f8:  aa448493          addi                    s1,s1,-1372
0x000108fc:  409707b3          sub                     a5,a4,s1
0x00010900:  000b3a83          ld                      s5,0(s6)
0x00010904:  4037db13          srai                    s6,a5,3
0x00010908:  00970c63          beq                     a4,s1,24                # 0x10920

----------------
IN: __libc_start_main
0x0001090c:  4a01              mv                      s4,zero
0x0001090e:  609c              ld                      a5,0(s1)
0x00010910:  8656              mv                      a2,s5
0x00010912:  85ce              mv                      a1,s3
0x00010914:  854a              mv                      a0,s2
0x00010916:  0a05              addi                    s4,s4,1
0x00010918:  9782              jalr                    ra,a5,0

----------------
IN: __libc_start_main
0x0001091a:  04a1              addi                    s1,s1,8
0x0001091c:  ff6a69e3          bgtu                    s6,s4,-14               # 0x1090e

----------------
IN: __libc_start_main
0x00010920:  0006e797          auipc                   a5,110                  # 0x7e920
0x00010924:  a8878793          addi                    a5,a5,-1400
0x00010928:  0006e497          auipc                   s1,110                  # 0x7e928
0x0001092c:  a7848493          addi                    s1,s1,-1416
0x00010930:  40978b33          sub                     s6,a5,s1
0x00010934:  403b5b13          srai                    s6,s6,3
0x00010938:  00978c63          beq                     a5,s1,24                # 0x10950

----------------
IN: __libc_start_main
0x0001093c:  4a01              mv                      s4,zero
0x0001093e:  609c              ld                      a5,0(s1)
0x00010940:  8656              mv                      a2,s5
0x00010942:  85ce              mv                      a1,s3
0x00010944:  854a              mv                      a0,s2
0x00010946:  0a05              addi                    s4,s4,1
0x00010948:  9782              jalr                    ra,a5,0

----------------
IN: 
0x000105fc:  000527b7          lui                     a5,82
0x00010600:  dba78793          addi                    a5,a5,-582
0x00010604:  c39d              beqz                    a5,38                   # 0x1062a

----------------
IN: 
0x00010606:  1141              addi                    sp,sp,-16
0x00010608:  e022              sd                      s0,0(sp)
0x0001060a:  e406              sd                      ra,8(sp)
0x0001060c:  0800              addi                    s0,sp,16
0x0001060e:  000845b7          lui                     a1,132
0x00010612:  0006e537          lui                     a0,110
0x00010616:  8a858593          addi                    a1,a1,-1880
0x0001061a:  ed850513          addi                    a0,a0,-296
0x0001061e:  79c410ef          jal                     ra,268188               # 0x51dba

----------------
IN: __register_frame_info
0x00051dba:  c119              beqz                    a0,6                    # 0x51dc0

----------------
IN: __register_frame_info
0x00051dbc:  411c              lw                      a5,0(a0)
0x00051dbe:  e391              bnez                    a5,4                    # 0x51dc2

----------------
IN: __register_frame_info
0x00051dc2:  7179              addi                    sp,sp,-48
0x00051dc4:  f406              sd                      ra,40(sp)
0x00051dc6:  f022              sd                      s0,32(sp)
0x00051dc8:  ec26              sd                      s1,24(sp)
0x00051dca:  1800              addi                    s0,sp,48
0x00051dcc:  57fd              addi                    a5,zero,-1
0x00051dce:  e19c              sd                      a5,0(a1)
0x00051dd0:  7f800793          addi                    a5,zero,2040
0x00051dd4:  84ae              mv                      s1,a1
0x00051dd6:  86ae              mv                      a3,a1
0x00051dd8:  ed88              sd                      a0,24(a1)
0x00051dda:  f19c              sd                      a5,32(a1)
0x00051ddc:  4605              addi                    a2,zero,1
0x00051dde:  0005b423          sd                      zero,8(a1)
0x00051de2:  0005b823          sd                      zero,16(a1)
0x00051de6:  85aa              mv                      a1,a0
0x00051de8:  00037517          auipc                   a0,55                   # 0x88de8
0x00051dec:  e6050513          addi                    a0,a0,-416
0x00051df0:  9effe0ef          jal                     ra,-5650                # 0x507de

----------------
IN: btree_insert.isra.0
0x000507de:  e211              bnez                    a2,4                    # 0x507e2

----------------
IN: btree_insert.isra.0
0x000507e2:  7159              addi                    sp,sp,-112
0x000507e4:  f0a2              sd                      s0,96(sp)
0x000507e6:  eca6              sd                      s1,88(sp)
0x000507e8:  1880              addi                    s0,sp,112
0x000507ea:  e8ca              sd                      s2,80(sp)
0x000507ec:  e4ce              sd                      s3,72(sp)
0x000507ee:  fc56              sd                      s5,56(sp)
0x000507f0:  f85a              sd                      s6,48(sp)
0x000507f2:  f45e              sd                      s7,40(sp)
0x000507f4:  f486              sd                      ra,104(sp)
0x000507f6:  e0d2              sd                      s4,64(sp)
0x000507f8:  f062              sd                      s8,32(sp)
0x000507fa:  01050493          addi                    s1,a0,16
0x000507fe:  892a              mv                      s2,a0
0x00050800:  8526              mv                      a0,s1
0x00050802:  89b2              mv                      s3,a2
0x00050804:  8b2e              mv                      s6,a1
0x00050806:  8ab6              mv                      s5,a3
0x00050808:  f8043c23          sd                      zero,-104(s0)
0x0005080c:  feeff0ef          jal                     ra,-2066                # 0x4fffa

----------------
IN: version_lock_lock_exclusive
0x0004fffa:  7139              addi                    sp,sp,-64
0x0004fffc:  f822              sd                      s0,48(sp)
0x0004fffe:  f426              sd                      s1,40(sp)

----------------
IN: version_lock_lock_exclusive
0x00050000:  fc06              sd                      ra,56(sp)
0x00050002:  0080              addi                    s0,sp,64
0x00050004:  84aa              mv                      s1,a0
0x00050006:  0330000f          fence                   rw,rw
0x0005000a:  611c              ld                      a5,0(a0)
0x0005000c:  0230000f          fence                   r,rw
0x00050010:  0017f713          andi                    a4,a5,1
0x00050014:  e30d              bnez                    a4,34                   # 0x50036

----------------
IN: version_lock_lock_exclusive
0x00050016:  0017e693          ori                     a3,a5,1
0x0005001a:  1605372f          lr.d.aq.rl              a4,(a0)
0x0005001e:  00f71563          bne                     a4,a5,10                # 0x50028

----------------
IN: version_lock_lock_exclusive
0x00050022:  1ad5362f          sc.d.rl                 a2,a3,(a0)
0x00050026:  fa75              bnez                    a2,-12                  # 0x5001a

----------------
IN: version_lock_lock_exclusive
0x00050028:  00f71763          bne                     a4,a5,14                # 0x50036

----------------
IN: version_lock_lock_exclusive
0x0005002c:  70e2              ld                      ra,56(sp)
0x0005002e:  7442              ld                      s0,48(sp)
0x00050030:  74a2              ld                      s1,40(sp)
0x00050032:  6121              addi                    sp,sp,64
0x00050034:  8082              ret                     

----------------
IN: btree_insert.isra.0
0x00050810:  00093b83          ld                      s7,0(s2)
0x00050814:  f9743823          sd                      s7,-112(s0)
0x00050818:  1e0b8a63          beqz                    s7,500                  # 0x50a0c

----------------
IN: btree_insert.isra.0
0x00050a0c:  4581              mv                      a1,zero
0x00050a0e:  854a              mv                      a0,s2
0x00050a10:  c9dff0ef          jal                     ra,-868                 # 0x506ac

----------------
IN: btree_allocate_node
0x000506ac:  7179              addi                    sp,sp,-48
0x000506ae:  f022              sd                      s0,32(sp)
0x000506b0:  ec26              sd                      s1,24(sp)
0x000506b2:  e84a              sd                      s2,16(sp)
0x000506b4:  e44e              sd                      s3,8(sp)
0x000506b6:  f406              sd                      ra,40(sp)
0x000506b8:  1800              addi                    s0,sp,48
0x000506ba:  892e              mv                      s2,a1
0x000506bc:  00850493          addi                    s1,a0,8
0x000506c0:  4989              addi                    s3,zero,2
0x000506c2:  0330000f          fence                   rw,rw
0x000506c6:  609c              ld                      a5,0(s1)
0x000506c8:  0230000f          fence                   r,rw
0x000506cc:  853e              mv                      a0,a5
0x000506ce:  cba5              beqz                    a5,112                  # 0x5073e

----------------
IN: btree_allocate_node
0x0005073e:  10000513          addi                    a0,zero,256
0x00050742:  ecec60ef          jal                     ra,-235826              # 0x16e10

----------------
IN: btree_allocate_node
0x00050746:  70a2              ld                      ra,40(sp)
0x00050748:  7402              ld                      s0,32(sp)
0x0005074a:  00194913          xori                    s2,s2,1
0x0005074e:  4785              addi                    a5,zero,1
0x00050750:  01252623          sw                      s2,12(a0)
0x00050754:  e11c              sd                      a5,0(a0)
0x00050756:  00052423          sw                      zero,8(a0)
0x0005075a:  64e2              ld                      s1,24(sp)
0x0005075c:  6942              ld                      s2,16(sp)
0x0005075e:  69a2              ld                      s3,8(sp)
0x00050760:  6145              addi                    sp,sp,48
0x00050762:  8082              ret                     

----------------
IN: btree_insert.isra.0
0x00050a14:  8baa              mv                      s7,a0
0x00050a16:  f8a43823          sd                      a0,-112(s0)
0x00050a1a:  00a93023          sd                      a0,0(s2)
0x00050a1e:  b511              j                       -508                    # 0x50822

----------------
IN: btree_insert.isra.0
0x00050822:  8526              mv                      a0,s1
0x00050824:  e13ff0ef          jal                     ra,-494                 # 0x50636

----------------
IN: version_lock_unlock_exclusive
0x00050636:  0330000f          fence                   rw,rw
0x0005063a:  611c              ld                      a5,0(a0)
0x0005063c:  0230000f          fence                   r,rw
0x00050640:  0791              addi                    a5,a5,4
0x00050642:  9bf1              andi                    a5,a5,-4
0x00050644:  0ef537af          amoswap.d.aq.rl         a5,a5,(a0)
0x00050648:  8b89              andi                    a5,a5,2
0x0005064a:  e391              bnez                    a5,4                    # 0x5064e

----------------
IN: version_lock_unlock_exclusive
0x0005064c:  8082              ret                     

----------------
IN: btree_insert.isra.0
0x00050828:  00cba783          lw                      a5,12(s7)
0x0005082c:  20079463          bnez                    a5,520                  # 0x50a34

----------------
IN: btree_insert.isra.0
0x00050a34:  008ba703          lw                      a4,8(s7)
0x00050a38:  47a9              addi                    a5,zero,10
0x00050a3a:  e6f715e3          bne                     a4,a5,-406              # 0x508a4

----------------
IN: btree_insert.isra.0
0x000508a4:  008ba483          lw                      s1,8(s7)
0x000508a8:  22048963          beqz                    s1,562                  # 0x50ada

----------------
IN: btree_insert.isra.0
0x00050ada:  4901              mv                      s2,zero
0x00050adc:  bd99              j                       -426                    # 0x50932

----------------
IN: btree_insert.isra.0
0x00050932:  00191793          slli                    a5,s2,1
0x00050936:  97ca              add                     a5,a5,s2
0x00050938:  078e              slli                    a5,a5,3
0x0005093a:  97de              add                     a5,a5,s7
0x0005093c:  0167b823          sd                      s6,16(a5)
0x00050940:  0137bc23          sd                      s3,24(a5)
0x00050944:  0357b023          sd                      s5,32(a5)
0x00050948:  2485              addiw                   s1,s1,1
0x0005094a:  009ba423          sw                      s1,8(s7)
0x0005094e:  7406              ld                      s0,96(sp)
0x00050950:  70a6              ld                      ra,104(sp)
0x00050952:  64e6              ld                      s1,88(sp)
0x00050954:  6946              ld                      s2,80(sp)
0x00050956:  69a6              ld                      s3,72(sp)
0x00050958:  6a06              ld                      s4,64(sp)
0x0005095a:  7ae2              ld                      s5,56(sp)
0x0005095c:  7b42              ld                      s6,48(sp)
0x0005095e:  7c02              ld                      s8,32(sp)
0x00050960:  855e              mv                      a0,s7
0x00050962:  7ba2              ld                      s7,40(sp)
0x00050964:  6165              addi                    sp,sp,112
0x00050966:  b9c1              j                       -816                    # 0x50636

----------------
IN: __register_frame_info
0x00051df4:  fd040593          addi                    a1,s0,-48
0x00051df8:  8526              mv                      a0,s1
0x00051dfa:  80bff0ef          jal                     ra,-2038                # 0x51604

----------------
IN: get_pc_range
0x00051604:  7179              addi                    sp,sp,-48
0x00051606:  f022              sd                      s0,32(sp)
0x00051608:  ec26              sd                      s1,24(sp)
0x0005160a:  e84a              sd                      s2,16(sp)
0x0005160c:  f406              sd                      ra,40(sp)
0x0005160e:  1800              addi                    s0,sp,48
0x00051610:  0005b423          sd                      zero,8(a1)
0x00051614:  0005b023          sd                      zero,0(a1)
0x00051618:  511c              lw                      a5,32(a0)
0x0005161a:  6d04              ld                      s1,24(a0)
0x0005161c:  892e              mv                      s2,a1
0x0005161e:  0017f713          andi                    a4,a5,1
0x00051622:  ef0d              bnez                    a4,58                   # 0x5165c

----------------
IN: get_pc_range
0x00051624:  8b89              andi                    a5,a5,2
0x00051626:  c39d              beqz                    a5,38                   # 0x5164c

----------------
IN: get_pc_range
0x0005164c:  7402              ld                      s0,32(sp)
0x0005164e:  70a2              ld                      ra,40(sp)
0x00051650:  6942              ld                      s2,16(sp)
0x00051652:  862e              mv                      a2,a1
0x00051654:  85a6              mv                      a1,s1
0x00051656:  64e2              ld                      s1,24(sp)
0x00051658:  6145              addi                    sp,sp,48
0x0005165a:  b3bd              j                       -658                    # 0x513c8

----------------
IN: classify_object_over_fdes
0x000513c8:  7135              addi                    sp,sp,-160
0x000513ca:  e922              sd                      s0,144(sp)
0x000513cc:  e0ea              sd                      s10,64(sp)
0x000513ce:  ed06              sd                      ra,152(sp)
0x000513d0:  f4d6              sd                      s5,104(sp)
0x000513d2:  1100              addi                    s0,sp,160
0x000513d4:  0005ad03          lw                      s10,0(a1)
0x000513d8:  220d0463          beqz                    s10,552                 # 0x51600

----------------
IN: classify_object_over_fdes
0x000513dc:  f8840793          addi                    a5,s0,-120
0x000513e0:  66c1              lui                     a3,16
0x000513e2:  f6f43423          sd                      a5,-152(s0)
0x000513e6:  fff68793          addi                    a5,a3,-1
0x000513ea:  f6f43023          sd                      a5,-160(s0)
0x000513ee:  57fd              addi                    a5,zero,-1
0x000513f0:  9381              srli                    a5,a5,32
0x000513f2:  e14a              sd                      s2,128(sp)
0x000513f4:  fcce              sd                      s3,120(sp)
0x000513f6:  f8d2              sd                      s4,112(sp)
0x000513f8:  f0da              sd                      s6,96(sp)
0x000513fa:  ecde              sd                      s7,88(sp)
0x000513fc:  e8e2              sd                      s8,80(sp)
0x000513fe:  e4e6              sd                      s9,72(sp)
0x00051400:  89b2              mv                      s3,a2
0x00051402:  e526              sd                      s1,136(sp)
0x00051404:  fc6e              sd                      s11,56(sp)
0x00051406:  8cae              mv                      s9,a1
0x00051408:  8a2a              mv                      s4,a0
0x0005140a:  4b01              mv                      s6,zero
0x0005140c:  4901              mv                      s2,zero
0x0005140e:  4a81              mv                      s5,zero
0x00051410:  4601              mv                      a2,zero
0x00051412:  4b89              addi                    s7,zero,2
0x00051414:  f6f43823          sd                      a5,-144(s0)
0x00051418:  f8040c13          addi                    s8,s0,-128
0x0005141c:  004ca683          lw                      a3,4(s9)
0x00051420:  cac5              beqz                    a3,176                  # 0x514d0

----------------
IN: classify_object_over_fdes
0x00051422:  004c8493          addi                    s1,s9,4
0x00051426:  8c95              sub                     s1,s1,a3
0x00051428:  0ff97d93          andi                    s11,s2,255
0x0005142c:  10c48163          beq                     s1,a2,258               # 0x5152e

----------------
IN: classify_object_over_fdes
0x00051430:  8526              mv                      a0,s1
0x00051432:  eacff0ef          jal                     ra,-2388                # 0x50ade

----------------
IN: get_cie_encoding
0x00050ade:  715d              addi                    sp,sp,-80
0x00050ae0:  e0a2              sd                      s0,64(sp)
0x00050ae2:  fc26              sd                      s1,56(sp)
0x00050ae4:  f84a              sd                      s2,48(sp)
0x00050ae6:  e486              sd                      ra,72(sp)
0x00050ae8:  0880              addi                    s0,sp,80
0x00050aea:  00950493          addi                    s1,a0,9
0x00050aee:  892a              mv                      s2,a0
0x00050af0:  8526              mv                      a0,s1
0x00050af2:  eadc70ef          jal                     ra,-229716              # 0x1899e

----------------
IN: get_cie_encoding
0x00050af6:  00894683          lbu                     a3,8(s2)
0x00050afa:  0505              addi                    a0,a0,1
0x00050afc:  478d              addi                    a5,zero,3
0x00050afe:  00a48633          add                     a2,s1,a0
0x00050b02:  0cd7e863          bgtu                    a3,a5,208               # 0x50bd2

----------------
IN: get_cie_encoding
0x00050b06:  00994703          lbu                     a4,9(s2)
0x00050b0a:  07a00793          addi                    a5,zero,122
0x00050b0e:  00f70963          beq                     a4,a5,18                # 0x50b20

----------------
IN: get_cie_encoding
0x00050b20:  00060783          lb                      a5,0(a2)
0x00050b24:  0605              addi                    a2,a2,1
0x00050b26:  fe07cde3          bltz                    a5,-6                   # 0x50b20

----------------
IN: get_cie_encoding
0x00050b2a:  00060783          lb                      a5,0(a2)
0x00050b2e:  8732              mv                      a4,a2
0x00050b30:  0605              addi                    a2,a2,1
0x00050b32:  fe07cce3          bltz                    a5,-8                   # 0x50b2a

----------------
IN: get_cie_encoding
0x00050b36:  4785              addi                    a5,zero,1
0x00050b38:  08f68a63          beq                     a3,a5,148               # 0x50bcc

----------------
IN: get_cie_encoding
0x00050b3c:  00060783          lb                      a5,0(a2)
0x00050b40:  0605              addi                    a2,a2,1
0x00050b42:  fe07cde3          bltz                    a5,-6                   # 0x50b3c

----------------
IN: get_cie_encoding
0x00050b46:  00a90493          addi                    s1,s2,10
0x00050b4a:  00060783          lb                      a5,0(a2)
0x00050b4e:  0605              addi                    a2,a2,1
0x00050b50:  fe07cde3          bltz                    a5,-6                   # 0x50b4a

----------------
IN: get_cie_encoding
0x00050b54:  00a94783          lbu                     a5,10(s2)
0x00050b58:  05200713          addi                    a4,zero,82
0x00050b5c:  04e78063          beq                     a5,a4,64                # 0x50b9c

----------------
IN: get_cie_encoding
0x00050b9c:  60a6              ld                      ra,72(sp)
0x00050b9e:  6406              ld                      s0,64(sp)
0x00050ba0:  00064503          lbu                     a0,0(a2)
0x00050ba4:  74e2              ld                      s1,56(sp)
0x00050ba6:  7942              ld                      s2,48(sp)
0x00050ba8:  6161              addi                    sp,sp,80
0x00050baa:  8082              ret                     

----------------
IN: classify_object_over_fdes
0x00051436:  0ff00693          addi                    a3,zero,255
0x0005143a:  892a              mv                      s2,a0
0x0005143c:  1cd50063          beq                     a0,a3,448               # 0x515fc

----------------
IN: classify_object_over_fdes
0x00051440:  0ff57d93          andi                    s11,a0,255
0x00051444:  14dd8963          beq                     s11,a3,338              # 0x51596

----------------
IN: classify_object_over_fdes
0x00051448:  070df693          andi                    a3,s11,112
0x0005144c:  02000613          addi                    a2,zero,32
0x00051450:  14c68063          beq                     a3,a2,320               # 0x51590

----------------
IN: classify_object_over_fdes
0x00051454:  12d67363          bleu                    a3,a2,294               # 0x5157a

----------------
IN: classify_object_over_fdes
0x0005157a:  f80984e3          beqz                    s3,-120                 # 0x51502

----------------
IN: classify_object_over_fdes
0x0005157e:  86e2              mv                      a3,s8
0x00051580:  008c8613          addi                    a2,s9,8
0x00051584:  4581              mv                      a1,zero
0x00051586:  856e              mv                      a0,s11
0x00051588:  b81fe0ef          jal                     ra,-5248                # 0x50108

----------------
IN: read_encoded_value_with_base
0x00050108:  05000793          addi                    a5,zero,80
0x0005010c:  08f50663          beq                     a0,a5,140               # 0x50198

----------------
IN: read_encoded_value_with_base
0x00050110:  872a              mv                      a4,a0
0x00050112:  00f57793          andi                    a5,a0,15
0x00050116:  4531              addi                    a0,zero,12
0x00050118:  16f56e63          bgtu                    a5,a0,380               # 0x50294

----------------
IN: read_encoded_value_with_base
0x0005011c:  0001e517          auipc                   a0,30                   # 0x6e11c
0x00050120:  d1c50513          addi                    a0,a0,-740
0x00050124:  078a              slli                    a5,a5,2
0x00050126:  97aa              add                     a5,a5,a0
0x00050128:  439c              lw                      a5,0(a5)
0x0005012a:  97aa              add                     a5,a5,a0
0x0005012c:  8782              jr                      a5

----------------
IN: read_encoded_value_with_base
0x000501e6:  00164803          lbu                     a6,1(a2)
0x000501ea:  00064883          lbu                     a7,0(a2)
0x000501ee:  00264503          lbu                     a0,2(a2)
0x000501f2:  00364783          lbu                     a5,3(a2)
0x000501f6:  0822              slli                    a6,a6,8
0x000501f8:  01186833          or                      a6,a6,a7
0x000501fc:  0542              slli                    a0,a0,16
0x000501fe:  01056533          or                      a0,a0,a6
0x00050202:  07e2              slli                    a5,a5,24
0x00050204:  8fc9              or                      a5,a5,a0
0x00050206:  2781              sext.w                  a5,a5
0x00050208:  00460513          addi                    a0,a2,4
0x0005020c:  b7b5              j                       -148                    # 0x50178

----------------
IN: read_encoded_value_with_base
0x00050178:  cf91              beqz                    a5,28                   # 0x50194

----------------
IN: read_encoded_value_with_base
0x0005017a:  07077813          andi                    a6,a4,112
0x0005017e:  48c1              addi                    a7,zero,16
0x00050180:  01181363          bne                     a6,a7,6                 # 0x50186

----------------
IN: read_encoded_value_with_base
0x00050184:  85b2              mv                      a1,a2
0x00050186:  0187171b          slliw                   a4,a4,24
0x0005018a:  4187571b          sraiw                   a4,a4,24
0x0005018e:  97ae              add                     a5,a5,a1
0x00050190:  00074b63          bltz                    a4,22                   # 0x501a6

----------------
IN: read_encoded_value_with_base
0x00050194:  e29c              sd                      a5,0(a3)
0x00050196:  8082              ret                     

----------------
IN: classify_object_over_fdes
0x0005158c:  4b01              mv                      s6,zero
0x0005158e:  b5e5              j                       -280                    # 0x51476

----------------
IN: classify_object_over_fdes
0x00051476:  007df593          andi                    a1,s11,7
0x0005147a:  0d758963          beq                     a1,s7,210               # 0x5154c

----------------
IN: classify_object_over_fdes
0x0005147e:  12bbfe63          bleu                    a1,s7,316               # 0x515ba

----------------
IN: classify_object_over_fdes
0x00051482:  478d              addi                    a5,zero,3
0x00051484:  f7043683          ld                      a3,-144(s0)
0x00051488:  12f59463          bne                     a1,a5,296               # 0x515b0

----------------
IN: classify_object_over_fdes
0x0005148c:  f8043883          ld                      a7,-128(s0)
0x00051490:  00d8f6b3          and                     a3,a7,a3
0x00051494:  ce8d              beqz                    a3,58                   # 0x514ce

----------------
IN: classify_object_over_fdes
0x00051496:  0a85              addi                    s5,s5,1
0x00051498:  0a098d63          beqz                    s3,186                  # 0x51552

----------------
IN: classify_object_over_fdes
0x0005149c:  f6843683          ld                      a3,-152(s0)
0x000514a0:  862a              mv                      a2,a0
0x000514a2:  4581              mv                      a1,zero
0x000514a4:  00fdf513          andi                    a0,s11,15
0x000514a8:  f7143c23          sd                      a7,-136(s0)
0x000514ac:  c5dfe0ef          jal                     ra,-5028                # 0x50108

----------------
IN: read_encoded_value_with_base
0x00050186:  0187171b          slliw                   a4,a4,24
0x0005018a:  4187571b          sraiw                   a4,a4,24
0x0005018e:  97ae              add                     a5,a5,a1
0x00050190:  00074b63          bltz                    a4,22                   # 0x501a6

----------------
IN: classify_object_over_fdes
0x000514b0:  f8843683          ld                      a3,-120(s0)
0x000514b4:  f7843883          ld                      a7,-136(s0)
0x000514b8:  0009b603          ld                      a2,0(s3)
0x000514bc:  0089b583          ld                      a1,8(s3)
0x000514c0:  96c6              add                     a3,a3,a7
0x000514c2:  ee59              bnez                    a2,158                  # 0x51560

----------------
IN: classify_object_over_fdes
0x000514c4:  e1d5              bnez                    a1,164                  # 0x51568

----------------
IN: classify_object_over_fdes
0x000514c6:  0119b023          sd                      a7,0(s3)
0x000514ca:  00d9b423          sd                      a3,8(s3)
0x000514ce:  8626              mv                      a2,s1
0x000514d0:  020d1793          slli                    a5,s10,32
0x000514d4:  9381              srli                    a5,a5,32
0x000514d6:  0791              addi                    a5,a5,4
0x000514d8:  9cbe              add                     s9,s9,a5
0x000514da:  000cad03          lw                      s10,0(s9)
0x000514de:  f20d1fe3          bnez                    s10,-194                # 0x5141c

----------------
IN: classify_object_over_fdes
0x0005141c:  004ca683          lw                      a3,4(s9)
0x00051420:  cac5              beqz                    a3,176                  # 0x514d0

----------------
IN: classify_object_over_fdes
0x0005152e:  86e2              mv                      a3,s8
0x00051530:  008c8613          addi                    a2,s9,8
0x00051534:  85da              mv                      a1,s6
0x00051536:  856e              mv                      a0,s11
0x00051538:  bd1fe0ef          jal                     ra,-5168                # 0x50108

----------------
IN: classify_object_over_fdes
0x0005153c:  0ff00693          addi                    a3,zero,255
0x00051540:  f8dd87e3          beq                     s11,a3,-114             # 0x514ce

----------------
IN: classify_object_over_fdes
0x00051544:  007df593          andi                    a1,s11,7
0x00051548:  f3759be3          bne                     a1,s7,-202              # 0x5147e

----------------
IN: classify_object_over_fdes
0x00051560:  00c8f463          bleu                    a2,a7,8                 # 0x51568

----------------
IN: classify_object_over_fdes
0x00051568:  f6d5f3e3          bleu                    a3,a1,-154              # 0x514ce

----------------
IN: classify_object_over_fdes
0x0005156c:  00d9b423          sd                      a3,8(s3)
0x00051570:  bfb9              j                       -162                    # 0x514ce

----------------
IN: classify_object_over_fdes
0x000514ce:  8626              mv                      a2,s1
0x000514d0:  020d1793          slli                    a5,s10,32
0x000514d4:  9381              srli                    a5,a5,32
0x000514d6:  0791              addi                    a5,a5,4
0x000514d8:  9cbe              add                     s9,s9,a5
0x000514da:  000cad03          lw                      s10,0(s9)
0x000514de:  f20d1fe3          bnez                    s10,-194                # 0x5141c

----------------
IN: classify_object_over_fdes
0x00051564:  0119b023          sd                      a7,0(s3)
0x00051568:  f6d5f3e3          bleu                    a3,a1,-154              # 0x514ce

----------------
IN: classify_object_over_fdes
0x000514d0:  020d1793          slli                    a5,s10,32
0x000514d4:  9381              srli                    a5,a5,32
0x000514d6:  0791              addi                    a5,a5,4
0x000514d8:  9cbe              add                     s9,s9,a5
0x000514da:  000cad03          lw                      s10,0(s9)
0x000514de:  f20d1fe3          bnez                    s10,-194                # 0x5141c

----------------
IN: get_cie_encoding
0x00050b60:  f44e              sd                      s3,40(sp)
0x00050b62:  f052              sd                      s4,32(sp)
0x00050b64:  ec56              sd                      s5,24(sp)
0x00050b66:  e85a              sd                      s6,16(sp)
0x00050b68:  05000913          addi                    s2,zero,80
0x00050b6c:  04c00a13          addi                    s4,zero,76
0x00050b70:  04200a93          addi                    s5,zero,66
0x00050b74:  fb840b13          addi                    s6,s0,-72
0x00050b78:  05200993          addi                    s3,zero,82
0x00050b7c:  03278863          beq                     a5,s2,48                # 0x50bac

----------------
IN: get_cie_encoding
0x00050bac:  00064503          lbu                     a0,0(a2)
0x00050bb0:  86da              mv                      a3,s6
0x00050bb2:  0605              addi                    a2,a2,1
0x00050bb4:  4581              mv                      a1,zero
0x00050bb6:  07f57513          andi                    a0,a0,127
0x00050bba:  d4eff0ef          jal                     ra,-2738                # 0x50108

----------------
IN: get_cie_encoding
0x00050bbe:  862a              mv                      a2,a0
0x00050bc0:  b7e9              j                       -54                     # 0x50b8a

----------------
IN: get_cie_encoding
0x00050b8a:  0014c783          lbu                     a5,1(s1)
0x00050b8e:  0485              addi                    s1,s1,1
0x00050b90:  ff3796e3          bne                     a5,s3,-20               # 0x50b7c

----------------
IN: get_cie_encoding
0x00050b7c:  03278863          beq                     a5,s2,48                # 0x50bac

----------------
IN: get_cie_encoding
0x00050b80:  01478463          beq                     a5,s4,8                 # 0x50b88

----------------
IN: get_cie_encoding
0x00050b88:  0605              addi                    a2,a2,1
0x00050b8a:  0014c783          lbu                     a5,1(s1)
0x00050b8e:  0485              addi                    s1,s1,1
0x00050b90:  ff3796e3          bne                     a5,s3,-20               # 0x50b7c

----------------
IN: get_cie_encoding
0x00050b94:  79a2              ld                      s3,40(sp)
0x00050b96:  7a02              ld                      s4,32(sp)
0x00050b98:  6ae2              ld                      s5,24(sp)
0x00050b9a:  6b42              ld                      s6,16(sp)
0x00050b9c:  60a6              ld                      ra,72(sp)
0x00050b9e:  6406              ld                      s0,64(sp)
0x00050ba0:  00064503          lbu                     a0,0(a2)
0x00050ba4:  74e2              ld                      s1,56(sp)
0x00050ba6:  7942              ld                      s2,48(sp)
0x00050ba8:  6161              addi                    sp,sp,80
0x00050baa:  8082              ret                     

----------------
IN: classify_object_over_fdes
0x000514e2:  64aa              ld                      s1,136(sp)
0x000514e4:  690a              ld                      s2,128(sp)
0x000514e6:  79e6              ld                      s3,120(sp)
0x000514e8:  7a46              ld                      s4,112(sp)
0x000514ea:  7b06              ld                      s6,96(sp)
0x000514ec:  6be6              ld                      s7,88(sp)
0x000514ee:  6c46              ld                      s8,80(sp)
0x000514f0:  6ca6              ld                      s9,72(sp)
0x000514f2:  7de2              ld                      s11,56(sp)
0x000514f4:  60ea              ld                      ra,152(sp)
0x000514f6:  644a              ld                      s0,144(sp)
0x000514f8:  6d06              ld                      s10,64(sp)
0x000514fa:  8556              mv                      a0,s5
0x000514fc:  7aa6              ld                      s5,104(sp)
0x000514fe:  610d              addi                    sp,sp,160
0x00051500:  8082              ret                     

----------------
IN: __register_frame_info
0x00051dfe:  fd043583          ld                      a1,-48(s0)
0x00051e02:  fd843603          ld                      a2,-40(s0)
0x00051e06:  7402              ld                      s0,32(sp)
0x00051e08:  70a2              ld                      ra,40(sp)
0x00051e0a:  86a6              mv                      a3,s1
0x00051e0c:  64e2              ld                      s1,24(sp)
0x00051e0e:  8e0d              sub                     a2,a2,a1
0x00051e10:  00037517          auipc                   a0,55                   # 0x88e10
0x00051e14:  e5050513          addi                    a0,a0,-432
0x00051e18:  6145              addi                    sp,sp,48
0x00051e1a:  9c5fe06f          j                       -5692                   # 0x507de

----------------
IN: 
0x00010622:  6402              ld                      s0,0(sp)
0x00010624:  60a2              ld                      ra,8(sp)
0x00010626:  0141              addi                    sp,sp,16
0x00010628:  bfb1              j                       -164                    # 0x10584

----------------
IN: 
0x00010584:  00084537          lui                     a0,132
0x00010588:  89850793          addi                    a5,a0,-1896
0x0001058c:  00084737          lui                     a4,132
0x00010590:  89870593          addi                    a1,a4,-1896
0x00010594:  8d9d              sub                     a1,a1,a5
0x00010596:  1141              addi                    sp,sp,-16
0x00010598:  4035d793          srai                    a5,a1,3
0x0001059c:  91fd              srli                    a1,a1,63
0x0001059e:  e422              sd                      s0,8(sp)
0x000105a0:  95be              add                     a1,a1,a5
0x000105a2:  0800              addi                    s0,sp,16
0x000105a4:  8585              srai                    a1,a1,1
0x000105a6:  c989              beqz                    a1,18                   # 0x105b8

----------------
IN: 
0x000105b8:  6422              ld                      s0,8(sp)
0x000105ba:  0141              addi                    sp,sp,16
0x000105bc:  8082              ret                     

----------------
IN: __libc_start_main
0x0001094a:  04a1              addi                    s1,s1,8
0x0001094c:  ff6a69e3          bgtu                    s6,s4,-14               # 0x1093e

----------------
IN: __libc_start_main
0x00010950:  4581              mv                      a1,zero
0x00010952:  4501              mv                      a0,zero
0x00010954:  5dc090ef          jal                     ra,38364                # 0x19f30

----------------
IN: _dl_debug_initialize
0x00019f30:  1141              addi                    sp,sp,-16
0x00019f32:  e422              sd                      s0,8(sp)
0x00019f34:  0800              addi                    s0,sp,16
0x00019f36:  0006e797          auipc                   a5,110                  # 0x87f36
0x00019f3a:  6da78793          addi                    a5,a5,1754
0x00019f3e:  e199              bnez                    a1,6                    # 0x19f44

----------------
IN: _dl_debug_initialize
0x00019f40:  4398              lw                      a4,0(a5)
0x00019f42:  cb0d              beqz                    a4,50                   # 0x19f74

----------------
IN: _dl_debug_initialize
0x00019f74:  4705              addi                    a4,zero,1
0x00019f76:  c398              sw                      a4,0(a5)
0x00019f78:  b7f1              j                       -52                     # 0x19f44

----------------
IN: _dl_debug_initialize
0x00019f44:  6b98              ld                      a4,16(a5)
0x00019f46:  ef01              bnez                    a4,24                   # 0x19f5e

----------------
IN: _dl_debug_initialize
0x00019f48:  c505              beqz                    a0,40                   # 0x19f70

----------------
IN: _dl_debug_initialize
0x00019f70:  7388              ld                      a0,32(a5)
0x00019f72:  bfe1              j                       -40                     # 0x19f4a

----------------
IN: _dl_debug_initialize
0x00019f4a:  00000717          auipc                   a4,0                    # 0x19f4a
0x00019f4e:  f8270713          addi                    a4,a4,-126
0x00019f52:  eb98              sd                      a4,16(a5)
0x00019f54:  f388              sd                      a0,32(a5)
0x00019f56:  0006e717          auipc                   a4,110                  # 0x87f56
0x00019f5a:  6e073123          sd                      zero,1762(a4)
0x00019f5e:  679c              ld                      a5,8(a5)
0x00019f60:  cf89              beqz                    a5,26                   # 0x19f7a

----------------
IN: _dl_debug_initialize
0x00019f7a:  00259793          slli                    a5,a1,2
0x00019f7e:  97ae              add                     a5,a5,a1
0x00019f80:  00068717          auipc                   a4,104                  # 0x81f80
0x00019f84:  06873703          ld                      a4,104(a4)
0x00019f88:  0796              slli                    a5,a5,5
0x00019f8a:  97ba              add                     a5,a5,a4
0x00019f8c:  6398              ld                      a4,0(a5)
0x00019f8e:  0006e797          auipc                   a5,110                  # 0x87f8e
0x00019f92:  68a78793          addi                    a5,a5,1674
0x00019f96:  0310000f          fence                   rw,w
0x00019f9a:  e398              sd                      a4,0(a5)
0x00019f9c:  6422              ld                      s0,8(sp)
0x00019f9e:  0006e517          auipc                   a0,110                  # 0x87f9e
0x00019fa2:  67250513          addi                    a0,a0,1650
0x00019fa6:  0141              addi                    sp,sp,16
0x00019fa8:  8082              ret                     

----------------
IN: __libc_start_main
0x00010958:  864e              mv                      a2,s3
0x0001095a:  85ca              mv                      a1,s2
0x0001095c:  8562              mv                      a0,s8
0x0001095e:  d71ff0ef          jal                     ra,-656                 # 0x106ce

----------------
IN: __libc_start_call_main
0x000106ce:  7169              addi                    sp,sp,-304
0x000106d0:  f222              sd                      s0,288(sp)
0x000106d2:  f606              sd                      ra,296(sp)
0x000106d4:  1a00              addi                    s0,sp,304
0x000106d6:  87aa              mv                      a5,a0
0x000106d8:  ef840513          addi                    a0,s0,-264
0x000106dc:  eef43423          sd                      a5,-280(s0)
0x000106e0:  eeb43023          sd                      a1,-288(s0)
0x000106e4:  ecc43c23          sd                      a2,-296(s0)
0x000106e8:  55c000ef          jal                     ra,1372                 # 0x10c44

----------------
IN: __GI__setjmp
0x00010c44:  4581              mv                      a1,zero
0x00010c46:  a019              j                       6                       # 0x10c4c

----------------
IN: __sigsetjmp
0x00010c4c:  00153023          sd                      ra,0(a0)
0x00010c50:  e500              sd                      s0,8(a0)
0x00010c52:  e904              sd                      s1,16(a0)
0x00010c54:  01253c23          sd                      s2,24(a0)
0x00010c58:  03353023          sd                      s3,32(a0)
0x00010c5c:  03453423          sd                      s4,40(a0)
0x00010c60:  03553823          sd                      s5,48(a0)
0x00010c64:  03653c23          sd                      s6,56(a0)
0x00010c68:  05753023          sd                      s7,64(a0)
0x00010c6c:  05853423          sd                      s8,72(a0)
0x00010c70:  05953823          sd                      s9,80(a0)
0x00010c74:  05a53c23          sd                      s10,88(a0)
0x00010c78:  07b53023          sd                      s11,96(a0)
0x00010c7c:  06253423          sd                      sp,104(a0)
0x00010c80:  b920              fsd                     fs0,112(a0)
0x00010c82:  bd24              fsd                     fs1,120(a0)
0x00010c84:  09253027          fsd                     fs2,128(a0)
0x00010c88:  09353427          fsd                     fs3,136(a0)
0x00010c8c:  09453827          fsd                     fs4,144(a0)
0x00010c90:  09553c27          fsd                     fs5,152(a0)
0x00010c94:  0b653027          fsd                     fs6,160(a0)
0x00010c98:  0b753427          fsd                     fs7,168(a0)
0x00010c9c:  0b853827          fsd                     fs8,176(a0)
0x00010ca0:  0b953c27          fsd                     fs9,184(a0)
0x00010ca4:  0da53027          fsd                     fs10,192(a0)
0x00010ca8:  0db53427          fsd                     fs11,200(a0)
0x00010cac:  0040006f          j                       4                       # 0x10cb0

----------------
IN: __sigjmp_save
0x00010cb0:  1101              addi                    sp,sp,-32
0x00010cb2:  e822              sd                      s0,16(sp)
0x00010cb4:  e426              sd                      s1,8(sp)
0x00010cb6:  ec06              sd                      ra,24(sp)
0x00010cb8:  1000              addi                    s0,sp,32
0x00010cba:  84aa              mv                      s1,a0
0x00010cbc:  e989              bnez                    a1,18                   # 0x10cce

----------------
IN: __sigjmp_save
0x00010cbe:  60e2              ld                      ra,24(sp)
0x00010cc0:  6442              ld                      s0,16(sp)
0x00010cc2:  0cb4a823          sw                      a1,208(s1)
0x00010cc6:  4501              mv                      a0,zero
0x00010cc8:  64a2              ld                      s1,8(sp)
0x00010cca:  6105              addi                    sp,sp,32
0x00010ccc:  8082              ret                     

----------------
IN: __libc_start_call_main
0x000106ec:  e915              bnez                    a0,52                   # 0x10720

----------------
IN: __libc_start_call_main
0x000106ee:  9a023683          ld                      a3,-1632(tp)
0x000106f2:  99823703          ld                      a4,-1640(tp)
0x000106f6:  ed843583          ld                      a1,-296(s0)
0x000106fa:  ee043503          ld                      a0,-288(s0)
0x000106fe:  ee843783          ld                      a5,-280(s0)
0x00010702:  fce43c23          sd                      a4,-40(s0)
0x00010706:  fcd43823          sd                      a3,-48(s0)
0x0001070a:  ef840713          addi                    a4,s0,-264
0x0001070e:  9ae23023          sd                      a4,-1632(tp)
0x00010712:  00078617          auipc                   a2,120                  # 0x88712
0x00010716:  eee63603          ld                      a2,-274(a2)
0x0001071a:  9782              jalr                    ra,a5,0

----------------
IN: 
0x00010546:  b7b9              j                       -178                    # 0x10494

----------------
IN: main
0x00010494:  00049797          auipc                   a5,73                   # 0x59494
0x00010498:  fec78793          addi                    a5,a5,-20
0x0001049c:  711d              addi                    sp,sp,-96
0x0001049e:  7398              ld                      a4,32(a5)
0x000104a0:  0007b883          ld                      a7,0(a5)
0x000104a4:  0087b803          ld                      a6,8(a5)
0x000104a8:  4b90              lw                      a2,16(a5)
0x000104aa:  6f94              ld                      a3,24(a5)
0x000104ac:  579c              lw                      a5,40(a5)
0x000104ae:  e4a6              sd                      s1,72(sp)
0x000104b0:  00071497          auipc                   s1,113                  # 0x814b0
0x000104b4:  7604b483          ld                      s1,1888(s1)
0x000104b8:  0004b303          ld                      t1,0(s1)
0x000104bc:  fc1a              sd                      t1,56(sp)
0x000104be:  4301              mv                      t1,zero
0x000104c0:  00043597          auipc                   a1,67                   # 0x534c0
0x000104c4:  94858593          addi                    a1,a1,-1720
0x000104c8:  4509              addi                    a0,zero,2
0x000104ca:  d83e              sw                      a5,48(sp)
0x000104cc:  f43a              sd                      a4,40(sp)
0x000104ce:  ec86              sd                      ra,88(sp)
0x000104d0:  e446              sd                      a7,8(sp)
0x000104d2:  e842              sd                      a6,16(sp)
0x000104d4:  cc32              sw                      a2,24(sp)
0x000104d6:  f036              sd                      a3,32(sp)
0x000104d8:  e8a2              sd                      s0,80(sp)
0x000104da:  17d090ef          jal                     ra,39292                # 0x19e56

----------------
IN: ___printf_chk
0x00019e56:  711d              addi                    sp,sp,-96
0x00019e58:  f022              sd                      s0,32(sp)
0x00019e5a:  ec26              sd                      s1,24(sp)
0x00019e5c:  1800              addi                    s0,sp,48
0x00019e5e:  f406              sd                      ra,40(sp)
0x00019e60:  832a              mv                      t1,a0
0x00019e62:  00068517          auipc                   a0,104                  # 0x81e62
0x00019e66:  d8e53503          ld                      a0,-626(a0)
0x00019e6a:  6108              ld                      a0,0(a0)
0x00019e6c:  00602333          sgtz                    t1,t1
0x00019e70:  e010              sd                      a2,0(s0)
0x00019e72:  e414              sd                      a3,8(s0)
0x00019e74:  e818              sd                      a4,16(s0)
0x00019e76:  00068497          auipc                   s1,104                  # 0x81e76
0x00019e7a:  d9a4b483          ld                      s1,-614(s1)
0x00019e7e:  ec1c              sd                      a5,24(s0)
0x00019e80:  03043023          sd                      a6,32(s0)
0x00019e84:  03143423          sd                      a7,40(s0)
0x00019e88:  609c              ld                      a5,0(s1)
0x00019e8a:  fcf43c23          sd                      a5,-40(s0)
0x00019e8e:  4781              mv                      a5,zero
0x00019e90:  00131693          slli                    a3,t1,1
0x00019e94:  8622              mv                      a2,s0
0x00019e96:  fc843823          sd                      s0,-48(s0)
0x00019e9a:  3d3050ef          jal                     ra,23506                # 0x1fa6c

----------------
IN: __vfprintf_internal
0x0001fa6c:  7169              addi                    sp,sp,-304
0x0001fa6e:  f222              sd                      s0,288(sp)
0x0001fa70:  ee26              sd                      s1,280(sp)
0x0001fa72:  ea4a              sd                      s2,272(sp)
0x0001fa74:  e252              sd                      s4,256(sp)
0x0001fa76:  fdd6              sd                      s5,248(sp)
0x0001fa78:  f9da              sd                      s6,240(sp)
0x0001fa7a:  1a00              addi                    s0,sp,304
0x0001fa7c:  f606              sd                      ra,296(sp)
0x0001fa7e:  0c052783          lw                      a5,192(a0)
0x0001fa82:  00062b17          auipc                   s6,98                   # 0x81a82
0x0001fa86:  18eb3b03          ld                      s6,398(s6)
0x0001fa8a:  000b3703          ld                      a4,0(s6)
0x0001fa8e:  fae43423          sd                      a4,-88(s0)
0x0001fa92:  4701              mv                      a4,zero
0x0001fa94:  84aa              mv                      s1,a0
0x0001fa96:  892e              mv                      s2,a1
0x0001fa98:  8a32              mv                      s4,a2
0x0001fa9a:  8ab6              mv                      s5,a3
0x0001fa9c:  e7c1              bnez                    a5,136                  # 0x1fb24

----------------
IN: __vfprintf_internal
0x0001fa9e:  57fd              addi                    a5,zero,-1
0x0001faa0:  0cf52023          sw                      a5,192(a0)
0x0001faa4:  4098              lw                      a4,0(s1)
0x0001faa6:  00877793          andi                    a5,a4,8
0x0001faaa:  14079c63          bnez                    a5,344                  # 0x1fc02

----------------
IN: __vfprintf_internal
0x0001faae:  16090663          beqz                    s2,364                  # 0x1fc1a

----------------
IN: __vfprintf_internal
0x0001fab2:  58fc              lw                      a5,116(s1)
0x0001fab4:  0807f793          andi                    a5,a5,128
0x0001fab8:  10078863          beqz                    a5,272                  # 0x1fbc8

----------------
IN: __vfprintf_internal
0x0001fbc8:  85a6              mv                      a1,s1
0x0001fbca:  ef840493          addi                    s1,s0,-264
0x0001fbce:  8526              mv                      a0,s1
0x0001fbd0:  7321b0ef          jal                     ra,112434               # 0x3b302

----------------
IN: __printf_buffer_to_file_init
0x0003b302:  1141              addi                    sp,sp,-16
0x0003b304:  e422              sd                      s0,8(sp)
0x0003b306:  0800              addi                    s0,sp,16
0x0003b308:  759c              ld                      a5,40(a1)
0x0003b30a:  7998              ld                      a4,48(a1)
0x0003b30c:  4691              addi                    a3,zero,4
0x0003b30e:  00053c23          sd                      zero,24(a0)
0x0003b312:  d114              sw                      a3,32(a0)
0x0003b314:  f50c              sd                      a1,40(a0)
0x0003b316:  00e7e663          bgtu                    a4,a5,12                # 0x3b322

----------------
IN: __printf_buffer_to_file_init
0x0003b31a:  03050793          addi                    a5,a0,48
0x0003b31e:  0b050713          addi                    a4,a0,176
0x0003b322:  6422              ld                      s0,8(sp)
0x0003b324:  e918              sd                      a4,16(a0)
0x0003b326:  e51c              sd                      a5,8(a0)
0x0003b328:  e11c              sd                      a5,0(a0)
0x0003b32a:  0141              addi                    sp,sp,16
0x0003b32c:  8082              ret                     

----------------
IN: __vfprintf_internal
0x0001fbd4:  85ca              mv                      a1,s2
0x0001fbd6:  86d6              mv                      a3,s5
0x0001fbd8:  8652              mv                      a2,s4
0x0001fbda:  8526              mv                      a0,s1
0x0001fbdc:  981fe0ef          jal                     ra,-5760                # 0x1e55c

----------------
IN: __printf_buffer
0x0001e55c:  a7010113          addi                    sp,sp,-1424
0x0001e560:  00064797          auipc                   a5,100                  # 0x82560
0x0001e564:  8707b783          ld                      a5,-1936(a5)
0x0001e568:  58113423          sd                      ra,1416(sp)
0x0001e56c:  58813023          sd                      s0,1408(sp)
0x0001e570:  56913c23          sd                      s1,1400(sp)
0x0001e574:  59010413          addi                    s0,sp,1424
0x0001e578:  57213823          sd                      s2,1392(sp)
0x0001e57c:  57313423          sd                      s3,1384(sp)
0x0001e580:  57413023          sd                      s4,1376(sp)
0x0001e584:  55613823          sd                      s6,1360(sp)
0x0001e588:  acf43423          sd                      a5,-1336(s0)
0x0001e58c:  9792              add                     a5,a5,tp
0x0001e58e:  439c              lw                      a5,0(a5)
0x0001e590:  89ae              mv                      s3,a1
0x0001e592:  00063717          auipc                   a4,99                   # 0x81592
0x0001e596:  67e73703          ld                      a4,1662(a4)
0x0001e59a:  84aa              mv                      s1,a0
0x0001e59c:  acb43c23          sd                      a1,-1320(s0)
0x0001e5a0:  aef43423          sd                      a5,-1304(s0)
0x0001e5a4:  02500593          addi                    a1,zero,37
0x0001e5a8:  631c              ld                      a5,0(a4)
0x0001e5aa:  f8f43423          sd                      a5,-120(s0)
0x0001e5ae:  4781              mv                      a5,zero
0x0001e5b0:  854e              mv                      a0,s3
0x0001e5b2:  8932              mv                      s2,a2
0x0001e5b4:  8b36              mv                      s6,a3
0x0001e5b6:  aed43023          sd                      a3,-1312(s0)
0x0001e5ba:  b4c43823          sd                      a2,-1200(s0)
0x0001e5be:  a72fa0ef          jal                     ra,-23950               # 0x18830

----------------
IN: __strchrnul
0x00018830:  010107b7          lui                     a5,4112
0x00018834:  10178793          addi                    a5,a5,257
0x00018838:  07c2              slli                    a5,a5,16
0x0001883a:  10178793          addi                    a5,a5,257
0x0001883e:  07c2              slli                    a5,a5,16
0x00018840:  0ff5f893          andi                    a7,a1,255
0x00018844:  10178793          addi                    a5,a5,257
0x00018848:  02f888b3          mul                     a7,a7,a5
0x0001884c:  1141              addi                    sp,sp,-16
0x0001884e:  0feff7b7          lui                     a5,65279
0x00018852:  e422              sd                      s0,8(sp)
0x00018854:  0792              slli                    a5,a5,4
0x00018856:  0800              addi                    s0,sp,16
0x00018858:  862a              mv                      a2,a0
0x0001885a:  9961              andi                    a0,a0,-8
0x0001885c:  eff78793          addi                    a5,a5,-257
0x00018860:  610c              ld                      a1,0(a0)
0x00018862:  07c2              slli                    a5,a5,16
0x00018864:  eff78793          addi                    a5,a5,-257
0x00018868:  07be              slli                    a5,a5,15
0x0001886a:  f7f78793          addi                    a5,a5,-129
0x0001886e:  0115c833          xor                     a6,a1,a7
0x00018872:  00f5f733          and                     a4,a1,a5
0x00018876:  00f876b3          and                     a3,a6,a5
0x0001887a:  973e              add                     a4,a4,a5
0x0001887c:  96be              add                     a3,a3,a5
0x0001887e:  8f4d              or                      a4,a4,a1
0x00018880:  0106e6b3          or                      a3,a3,a6
0x00018884:  8f75              and                     a4,a4,a3
0x00018886:  8fd9              or                      a5,a5,a4
0x00018888:  00767713          andi                    a4,a2,7
0x0001888c:  fff7c793          not                     a5,a5
0x00018890:  0037171b          slliw                   a4,a4,3
0x00018894:  00e7d7b3          srl                     a5,a5,a4
0x00018898:  e7cd              bnez                    a5,170                  # 0x18942

----------------
IN: __strchrnul
0x0001889a:  f0101837          lui                     a6,-65279
0x0001889e:  feff05b7          lui                     a1,-4112
0x000188a2:  0812              slli                    a6,a6,4
0x000188a4:  eff58593          addi                    a1,a1,-257
0x000188a8:  10180813          addi                    a6,a6,257
0x000188ac:  05c2              slli                    a1,a1,16
0x000188ae:  0842              slli                    a6,a6,16
0x000188b0:  eff58593          addi                    a1,a1,-257
0x000188b4:  10180813          addi                    a6,a6,257
0x000188b8:  05c2              slli                    a1,a1,16
0x000188ba:  083e              slli                    a6,a6,15
0x000188bc:  eff58593          addi                    a1,a1,-257
0x000188c0:  08080813          addi                    a6,a6,128
0x000188c4:  6518              ld                      a4,8(a0)
0x000188c6:  832a              mv                      t1,a0
0x000188c8:  0521              addi                    a0,a0,8
0x000188ca:  011746b3          xor                     a3,a4,a7
0x000188ce:  00b707b3          add                     a5,a4,a1
0x000188d2:  00b68633          add                     a2,a3,a1
0x000188d6:  fff74713          not                     a4,a4
0x000188da:  fff6c693          not                     a3,a3
0x000188de:  8ff9              and                     a5,a5,a4
0x000188e0:  00d67733          and                     a4,a2,a3
0x000188e4:  8fd9              or                      a5,a5,a4
0x000188e6:  0107f733          and                     a4,a5,a6
0x000188ea:  df69              beqz                    a4,-38                  # 0x188c4

----------------
IN: __strchrnul
0x000188ec:  0807f713          andi                    a4,a5,128
0x000188f0:  e731              bnez                    a4,76                   # 0x1893c

----------------
IN: __strchrnul
0x000188f2:  03079713          slli                    a4,a5,48
0x000188f6:  00930513          addi                    a0,t1,9
0x000188fa:  04074163          bltz                    a4,66                   # 0x1893c

----------------
IN: __strchrnul
0x000188fe:  02879713          slli                    a4,a5,40
0x00018902:  00a30513          addi                    a0,t1,10
0x00018906:  02074b63          bltz                    a4,54                   # 0x1893c

----------------
IN: __strchrnul
0x0001890a:  02079713          slli                    a4,a5,32
0x0001890e:  00b30513          addi                    a0,t1,11
0x00018912:  02074563          bltz                    a4,42                   # 0x1893c

----------------
IN: __strchrnul
0x00018916:  01879713          slli                    a4,a5,24
0x0001891a:  00c30513          addi                    a0,t1,12
0x0001891e:  00074f63          bltz                    a4,30                   # 0x1893c

----------------
IN: __strchrnul
0x0001893c:  6422              ld                      s0,8(sp)
0x0001893e:  0141              addi                    sp,sp,16
0x00018940:  8082              ret                     

----------------
IN: __printf_buffer
0x0001e5c2:  8a2a              mv                      s4,a0
0x0001e5c4:  aca43823          sd                      a0,-1328(s0)
0x0001e5c8:  41350633          sub                     a2,a0,s3
0x0001e5cc:  85ce              mv                      a1,s3
0x0001e5ce:  8526              mv                      a0,s1
0x0001e5d0:  b5443423          sd                      s4,-1208(s0)
0x0001e5d4:  5811c0ef          jal                     ra,118144               # 0x3b354

----------------
IN: __printf_buffer_write
0x0003b354:  511c              lw                      a5,32(a0)
0x0003b356:  c7d9              beqz                    a5,142                  # 0x3b3e4

----------------
IN: __printf_buffer_write
0x0003b358:  7179              addi                    sp,sp,-48
0x0003b35a:  f022              sd                      s0,32(sp)
0x0003b35c:  e84a              sd                      s2,16(sp)
0x0003b35e:  f406              sd                      ra,40(sp)
0x0003b360:  1800              addi                    s0,sp,48
0x0003b362:  8932              mv                      s2,a2
0x0003b364:  ca3d              beqz                    a2,118                  # 0x3b3da

----------------
IN: __printf_buffer_write
0x0003b366:  e44e              sd                      s3,8(sp)
0x0003b368:  e052              sd                      s4,0(sp)
0x0003b36a:  89aa              mv                      s3,a0
0x0003b36c:  ec26              sd                      s1,24(sp)
0x0003b36e:  6508              ld                      a0,8(a0)
0x0003b370:  8a2e              mv                      s4,a1
0x0003b372:  a01d              j                       38                      # 0x3b398

----------------
IN: __printf_buffer_write
0x0003b398:  0109b483          ld                      s1,16(s3)
0x0003b39c:  fca49ce3          bne                     s1,a0,-40               # 0x3b374

----------------
IN: __printf_buffer_write
0x0003b374:  8c89              sub                     s1,s1,a0
0x0003b376:  00997363          bleu                    s1,s2,6                 # 0x3b37c

----------------
IN: __printf_buffer_write
0x0003b37a:  84ca              mv                      s1,s2
0x0003b37c:  85d2              mv                      a1,s4
0x0003b37e:  8626              mv                      a2,s1
0x0003b380:  a26dd0ef          jal                     ra,-142810              # 0x185a6

----------------
IN: __printf_buffer_write
0x0003b384:  0089b503          ld                      a0,8(s3)
0x0003b388:  40990933          sub                     s2,s2,s1
0x0003b38c:  9a26              add                     s4,s4,s1
0x0003b38e:  9526              add                     a0,a0,s1
0x0003b390:  00a9b423          sd                      a0,8(s3)
0x0003b394:  04090063          beqz                    s2,64                   # 0x3b3d4

----------------
IN: __printf_buffer_write
0x0003b3d4:  64e2              ld                      s1,24(sp)
0x0003b3d6:  69a2              ld                      s3,8(sp)
0x0003b3d8:  6a02              ld                      s4,0(sp)
0x0003b3da:  70a2              ld                      ra,40(sp)
0x0003b3dc:  7402              ld                      s0,32(sp)
0x0003b3de:  6942              ld                      s2,16(sp)
0x0003b3e0:  6145              addi                    sp,sp,48
0x0003b3e2:  8082              ret                     

----------------
IN: __printf_buffer
0x0001e5d8:  509c              lw                      a5,32(s1)
0x0001e5da:  c3e5              beqz                    a5,224                  # 0x1e6ba

----------------
IN: __printf_buffer
0x0001e5dc:  000a4783          lbu                     a5,0(s4)
0x0001e5e0:  cfe9              beqz                    a5,218                  # 0x1e6ba

----------------
IN: __printf_buffer
0x0001e6ba:  00063797          auipc                   a5,99                   # 0x816ba
0x0001e6be:  5567b783          ld                      a5,1366(a5)
0x0001e6c2:  f8843703          ld                      a4,-120(s0)
0x0001e6c6:  639c              ld                      a5,0(a5)
0x0001e6c8:  8fb9              xor                     a5,a5,a4
0x0001e6ca:  4701              mv                      a4,zero
0x0001e6cc:  c399              beqz                    a5,6                    # 0x1e6d2

----------------
IN: __printf_buffer
0x0001e6d2:  58813083          ld                      ra,1416(sp)
0x0001e6d6:  58013403          ld                      s0,1408(sp)
0x0001e6da:  57813483          ld                      s1,1400(sp)
0x0001e6de:  57013903          ld                      s2,1392(sp)
0x0001e6e2:  56813983          ld                      s3,1384(sp)
0x0001e6e6:  56013a03          ld                      s4,1376(sp)
0x0001e6ea:  55013b03          ld                      s6,1360(sp)
0x0001e6ee:  59010113          addi                    sp,sp,1424
0x0001e6f2:  8082              ret                     

----------------
IN: __vfprintf_internal
0x0001fbe0:  8526              mv                      a0,s1
0x0001fbe2:  74c1b0ef          jal                     ra,112460               # 0x3b32e

----------------
IN: __printf_buffer_to_file_done
0x0003b32e:  511c              lw                      a5,32(a0)
0x0003b330:  c385              beqz                    a5,32                   # 0x3b350

----------------
IN: __printf_buffer_to_file_done
0x0003b332:  1101              addi                    sp,sp,-32
0x0003b334:  e822              sd                      s0,16(sp)
0x0003b336:  e426              sd                      s1,8(sp)
0x0003b338:  ec06              sd                      ra,24(sp)
0x0003b33a:  1000              addi                    s0,sp,32
0x0003b33c:  84aa              mv                      s1,a0
0x0003b33e:  e9dff0ef          jal                     ra,-356                 # 0x3b1da

----------------
IN: __printf_buffer_flush_to_file
0x0003b1da:  7139              addi                    sp,sp,-64
0x0003b1dc:  f822              sd                      s0,48(sp)
0x0003b1de:  f426              sd                      s1,40(sp)
0x0003b1e0:  ec4e              sd                      s3,24(sp)
0x0003b1e2:  fc06              sd                      ra,56(sp)
0x0003b1e4:  0080              addi                    s0,sp,64
0x0003b1e6:  6510              ld                      a2,8(a0)
0x0003b1e8:  6118              ld                      a4,0(a0)
0x0003b1ea:  6d1c              ld                      a5,24(a0)
0x0003b1ec:  6914              ld                      a3,16(a0)
0x0003b1ee:  40e60733          sub                     a4,a2,a4
0x0003b1f2:  97ba              add                     a5,a5,a4
0x0003b1f4:  ed1c              sd                      a5,24(a0)
0x0003b1f6:  0b050993          addi                    s3,a0,176
0x0003b1fa:  84aa              mv                      s1,a0
0x0003b1fc:  05368a63          beq                     a3,s3,84                # 0x3b250

----------------
IN: __printf_buffer_flush_to_file
0x0003b250:  7508              ld                      a0,40(a0)
0x0003b252:  e456              sd                      s5,8(sp)
0x0003b254:  6785              lui                     a5,1
0x0003b256:  0d853a83          ld                      s5,216(a0)
0x0003b25a:  00046717          auipc                   a4,70                   # 0x8125a
0x0003b25e:  aee70713          addi                    a4,a4,-1298
0x0003b262:  f04a              sd                      s2,32(sp)
0x0003b264:  e852              sd                      s4,16(sp)
0x0003b266:  92f78793          addi                    a5,a5,-1745
0x0003b26a:  03048a13          addi                    s4,s1,48
0x0003b26e:  40ea8733          sub                     a4,s5,a4
0x0003b272:  41460933          sub                     s2,a2,s4
0x0003b276:  04e7ef63          bgtu                    a4,a5,94                # 0x3b2d4

----------------
IN: __printf_buffer_flush_to_file
0x0003b27a:  038ab783          ld                      a5,56(s5)
0x0003b27e:  864a              mv                      a2,s2
0x0003b280:  85d2              mv                      a1,s4
0x0003b282:  9782              jalr                    ra,a5,0

----------------
IN: _IO_new_file_xsputn
0x00022e32:  c251              beqz                    a2,132                  # 0x22eb6

----------------
IN: _IO_new_file_xsputn
0x00022e34:  7139              addi                    sp,sp,-64
0x00022e36:  f822              sd                      s0,48(sp)
0x00022e38:  f426              sd                      s1,40(sp)
0x00022e3a:  f04a              sd                      s2,32(sp)
0x00022e3c:  e852              sd                      s4,16(sp)
0x00022e3e:  fc06              sd                      ra,56(sp)
0x00022e40:  ec4e              sd                      s3,24(sp)
0x00022e42:  e456              sd                      s5,8(sp)
0x00022e44:  0080              addi                    s0,sp,64
0x00022e46:  6118              ld                      a4,0(a0)
0x00022e48:  6785              lui                     a5,1
0x00022e4a:  a0078793          addi                    a5,a5,-1536
0x00022e4e:  8f7d              and                     a4,a4,a5
0x00022e50:  84aa              mv                      s1,a0
0x00022e52:  8a32              mv                      s4,a2
0x00022e54:  7508              ld                      a0,40(a0)
0x00022e56:  892e              mv                      s2,a1
0x00022e58:  02f70963          beq                     a4,a5,50                # 0x22e8a

----------------
IN: _IO_new_file_xsputn
0x00022e5c:  7898              ld                      a4,48(s1)
0x00022e5e:  06e57063          bleu                    a4,a0,96                # 0x22ebe

----------------
IN: _IO_new_file_xsputn
0x00022ebe:  89d2              mv                      s3,s4
0x00022ec0:  0d84ba83          ld                      s5,216(s1)
0x00022ec4:  6785              lui                     a5,1
0x00022ec6:  0005e717          auipc                   a4,94                   # 0x80ec6
0x00022eca:  e8270713          addi                    a4,a4,-382
0x00022ece:  40ea8733          sub                     a4,s5,a4
0x00022ed2:  92f78793          addi                    a5,a5,-1745
0x00022ed6:  08e7e263          bgtu                    a4,a5,132               # 0x22f5a

----------------
IN: _IO_new_file_xsputn
0x00022eda:  018ab783          ld                      a5,24(s5)
0x00022ede:  55fd              addi                    a1,zero,-1
0x00022ee0:  8526              mv                      a0,s1
0x00022ee2:  9782              jalr                    ra,a5,0

----------------
IN: _IO_new_file_overflow
0x000225e6:  7179              addi                    sp,sp,-48
0x000225e8:  f022              sd                      s0,32(sp)
0x000225ea:  ec26              sd                      s1,24(sp)
0x000225ec:  f406              sd                      ra,40(sp)
0x000225ee:  1800              addi                    s0,sp,48
0x000225f0:  411c              lw                      a5,0(a0)
0x000225f2:  84aa              mv                      s1,a0
0x000225f4:  0087f713          andi                    a4,a5,8
0x000225f8:  12071a63          bnez                    a4,308                  # 0x2272c

----------------
IN: _IO_new_file_overflow
0x000225fc:  e84a              sd                      s2,16(sp)
0x000225fe:  e44e              sd                      s3,8(sp)
0x00022600:  03479693          slli                    a3,a5,52
0x00022604:  7118              ld                      a4,32(a0)
0x00022606:  892e              mv                      s2,a1
0x00022608:  0406d263          bgez                    a3,68                   # 0x2264c

----------------
IN: _IO_new_file_overflow
0x0002264c:  c35d              beqz                    a4,166                  # 0x226f2

----------------
IN: _IO_new_file_overflow
0x000226f2:  8526              mv                      a0,s1
0x000226f4:  f6eef0ef          jal                     ra,-67730               # 0x11e62

----------------
IN: _IO_doallocbuf
0x00011e62:  7d1c              ld                      a5,56(a0)
0x00011e64:  c391              beqz                    a5,4                    # 0x11e68

----------------
IN: _IO_doallocbuf
0x00011e68:  7179              addi                    sp,sp,-48
0x00011e6a:  f022              sd                      s0,32(sp)
0x00011e6c:  ec26              sd                      s1,24(sp)
0x00011e6e:  f406              sd                      ra,40(sp)
0x00011e70:  e84a              sd                      s2,16(sp)
0x00011e72:  e44e              sd                      s3,8(sp)
0x00011e74:  1800              addi                    s0,sp,48
0x00011e76:  411c              lw                      a5,0(a0)
0x00011e78:  84aa              mv                      s1,a0
0x00011e7a:  0027f713          andi                    a4,a5,2
0x00011e7e:  c709              beqz                    a4,10                   # 0x11e88

----------------
IN: _IO_doallocbuf
0x00011e88:  0d84b903          ld                      s2,216(s1)
0x00011e8c:  6785              lui                     a5,1
0x00011e8e:  0006f717          auipc                   a4,111                  # 0x80e8e
0x00011e92:  eba70713          addi                    a4,a4,-326
0x00011e96:  40e90733          sub                     a4,s2,a4
0x00011e9a:  92f78793          addi                    a5,a5,-1745
0x00011e9e:  04e7ea63          bgtu                    a4,a5,84                # 0x11ef2

----------------
IN: _IO_doallocbuf
0x00011ea2:  06893783          ld                      a5,104(s2)
0x00011ea6:  8526              mv                      a0,s1
0x00011ea8:  9782              jalr                    ra,a5,0

----------------
IN: _IO_file_doallocate
0x00020322:  7131              addi                    sp,sp,-192
0x00020324:  f922              sd                      s0,176(sp)
0x00020326:  f526              sd                      s1,168(sp)
0x00020328:  ed4e              sd                      s3,152(sp)
0x0002032a:  0180              addi                    s0,sp,192
0x0002032c:  fd06              sd                      ra,184(sp)
0x0002032e:  f14a              sd                      s2,160(sp)
0x00020330:  593c              lw                      a5,112(a0)
0x00020332:  00062997          auipc                   s3,98                   # 0x82332
0x00020336:  8de9b983          ld                      s3,-1826(s3)
0x0002033a:  0009b703          ld                      a4,0(s3)
0x0002033e:  fce43423          sd                      a4,-56(s0)
0x00020342:  4701              mv                      a4,zero
0x00020344:  84aa              mv                      s1,a0
0x00020346:  0807c063          bltz                    a5,128                  # 0x203c6

----------------
IN: _IO_file_doallocate
0x0002034a:  0d853903          ld                      s2,216(a0)
0x0002034e:  6785              lui                     a5,1
0x00020350:  00061717          auipc                   a4,97                   # 0x81350
0x00020354:  9f870713          addi                    a4,a4,-1544
0x00020358:  40e90733          sub                     a4,s2,a4
0x0002035c:  92f78793          addi                    a5,a5,-1745
0x00020360:  0ce7e863          bgtu                    a4,a5,208               # 0x20430

----------------
IN: _IO_file_doallocate
0x00020364:  09093783          ld                      a5,144(s2)
0x00020368:  f4840593          addi                    a1,s0,-184
0x0002036c:  8526              mv                      a0,s1
0x0002036e:  9782              jalr                    ra,a5,0

----------------
IN: _IO_file_stat
0x00022d64:  1141              addi                    sp,sp,-16
0x00022d66:  e422              sd                      s0,8(sp)
0x00022d68:  0800              addi                    s0,sp,16
0x00022d6a:  6422              ld                      s0,8(sp)
0x00022d6c:  5928              lw                      a0,112(a0)
0x00022d6e:  0141              addi                    sp,sp,16
0x00022d70:  958f606f          j                       -40616                  # 0x18ec8

----------------
IN: fstat
0x00018ec8:  1141              addi                    sp,sp,-16
0x00018eca:  e422              sd                      s0,8(sp)
0x00018ecc:  0800              addi                    s0,sp,16
0x00018ece:  05000893          addi                    a7,zero,80
0x00018ed2:  00000073          ecall                   

----------------
IN: fstat
0x00018ed6:  77fd              lui                     a5,-1
0x00018ed8:  00a7e663          bgtu                    a0,a5,12                # 0x18ee4

----------------
IN: fstat
0x00018edc:  6422              ld                      s0,8(sp)
0x00018ede:  2501              sext.w                  a0,a0
0x00018ee0:  0141              addi                    sp,sp,16
0x00018ee2:  8082              ret                     

----------------
IN: _IO_file_doallocate
0x00020370:  04054b63          bltz                    a0,86                   # 0x203c6

----------------
IN: _IO_file_doallocate
0x00020374:  f5842783          lw                      a5,-168(s0)
0x00020378:  66bd              lui                     a3,15
0x0002037a:  6709              lui                     a4,2
0x0002037c:  8ff5              and                     a5,a5,a3
0x0002037e:  04e78c63          beq                     a5,a4,88                # 0x203d6

----------------
IN: _IO_file_doallocate
0x000203d6:  f6843783          ld                      a5,-152(s0)
0x000203da:  767d              lui                     a2,-1
0x000203dc:  469d              addi                    a3,zero,7
0x000203de:  02c79713          slli                    a4,a5,44
0x000203e2:  9381              srli                    a5,a5,32
0x000203e4:  9351              srli                    a4,a4,52
0x000203e6:  8ff1              and                     a5,a5,a2
0x000203e8:  8fd9              or                      a5,a5,a4
0x000203ea:  f787879b          addiw                   a5,a5,-136
0x000203ee:  00f6ef63          bgtu                    a5,a3,30                # 0x2040c

----------------
IN: _IO_file_doallocate
0x000203f2:  409c              lw                      a5,0(s1)
0x000203f4:  f8042903          lw                      s2,-128(s0)
0x000203f8:  2007e793          ori                     a5,a5,512
0x000203fc:  c09c              sw                      a5,0(s1)
0x000203fe:  6789              lui                     a5,2
0x00020400:  17f9              addi                    a5,a5,-2
0x00020402:  fff9071b          addiw                   a4,s2,-1
0x00020406:  fce7e0e3          bgtu                    a4,a5,-64               # 0x203c6

----------------
IN: _IO_file_doallocate
0x0002040a:  b761              j                       -120                    # 0x20392

----------------
IN: _IO_file_doallocate
0x00020392:  854a              mv                      a0,s2
0x00020394:  a7df60ef          jal                     ra,-38276               # 0x16e10

----------------
IN: _IO_file_doallocate
0x00020398:  85aa              mv                      a1,a0
0x0002039a:  cd05              beqz                    a0,56                   # 0x203d2

----------------
IN: _IO_file_doallocate
0x0002039c:  01250633          add                     a2,a0,s2
0x000203a0:  4685              addi                    a3,zero,1
0x000203a2:  8526              mv                      a0,s1
0x000203a4:  a6df10ef          jal                     ra,-58772               # 0x11e10

----------------
IN: _IO_setb
0x00011e10:  7179              addi                    sp,sp,-48
0x00011e12:  f022              sd                      s0,32(sp)
0x00011e14:  ec26              sd                      s1,24(sp)
0x00011e16:  e84a              sd                      s2,16(sp)
0x00011e18:  e44e              sd                      s3,8(sp)
0x00011e1a:  e052              sd                      s4,0(sp)
0x00011e1c:  f406              sd                      ra,40(sp)
0x00011e1e:  1800              addi                    s0,sp,48
0x00011e20:  84aa              mv                      s1,a0
0x00011e22:  7d08              ld                      a0,56(a0)
0x00011e24:  409c              lw                      a5,0(s1)
0x00011e26:  8a2e              mv                      s4,a1
0x00011e28:  89b2              mv                      s3,a2
0x00011e2a:  8936              mv                      s2,a3
0x00011e2c:  c501              beqz                    a0,8                    # 0x11e34

----------------
IN: _IO_setb
0x00011e34:  0344bc23          sd                      s4,56(s1)
0x00011e38:  0534b023          sd                      s3,64(s1)
0x00011e3c:  0017e713          ori                     a4,a5,1
0x00011e40:  00090463          beqz                    s2,8                    # 0x11e48

----------------
IN: _IO_setb
0x00011e44:  ffe7f713          andi                    a4,a5,-2
0x00011e48:  70a2              ld                      ra,40(sp)
0x00011e4a:  7402              ld                      s0,32(sp)
0x00011e4c:  c098              sw                      a4,0(s1)
0x00011e4e:  6942              ld                      s2,16(sp)
0x00011e50:  64e2              ld                      s1,24(sp)
0x00011e52:  69a2              ld                      s3,8(sp)
0x00011e54:  6a02              ld                      s4,0(sp)
0x00011e56:  6145              addi                    sp,sp,48
0x00011e58:  8082              ret                     

----------------
IN: _IO_file_doallocate
0x000203a8:  4505              addi                    a0,zero,1
0x000203aa:  fc843703          ld                      a4,-56(s0)
0x000203ae:  0009b783          ld                      a5,0(s3)
0x000203b2:  8fb9              xor                     a5,a5,a4
0x000203b4:  4701              mv                      a4,zero
0x000203b6:  e3c1              bnez                    a5,128                  # 0x20436

----------------
IN: _IO_file_doallocate
0x000203b8:  70ea              ld                      ra,184(sp)
0x000203ba:  744a              ld                      s0,176(sp)
0x000203bc:  74aa              ld                      s1,168(sp)
0x000203be:  790a              ld                      s2,160(sp)
0x000203c0:  69ea              ld                      s3,152(sp)
0x000203c2:  6129              addi                    sp,sp,192
0x000203c4:  8082              ret                     

----------------
IN: _IO_doallocbuf
0x00011eaa:  57fd              addi                    a5,zero,-1
0x00011eac:  02f51363          bne                     a0,a5,38                # 0x11ed2

----------------
IN: _IO_doallocbuf
0x00011ed2:  70a2              ld                      ra,40(sp)
0x00011ed4:  7402              ld                      s0,32(sp)
0x00011ed6:  64e2              ld                      s1,24(sp)
0x00011ed8:  6942              ld                      s2,16(sp)
0x00011eda:  69a2              ld                      s3,8(sp)
0x00011edc:  6145              addi                    sp,sp,48
0x00011ede:  8082              ret                     

----------------
IN: _IO_new_file_overflow
0x000226f8:  7c90              ld                      a2,56(s1)
0x000226fa:  409c              lw                      a5,0(s1)
0x000226fc:  ec90              sd                      a2,24(s1)
0x000226fe:  e490              sd                      a2,8(s1)
0x00022700:  e890              sd                      a2,16(s1)
0x00022702:  b7b9              j                       -178                    # 0x22650

----------------
IN: _IO_new_file_overflow
0x00022650:  1007f713          andi                    a4,a5,256
0x00022654:  eb45              bnez                    a4,176                  # 0x22704

----------------
IN: _IO_new_file_overflow
0x00022656:  60ac              ld                      a1,64(s1)
0x00022658:  08c58063          beq                     a1,a2,128               # 0x226d8

----------------
IN: _IO_new_file_overflow
0x0002265c:  6894              ld                      a3,16(s1)
0x0002265e:  6705              lui                     a4,1
0x00022660:  80070713          addi                    a4,a4,-2048
0x00022664:  0c04a503          lw                      a0,192(s1)
0x00022668:  8f5d              or                      a4,a4,a5
0x0002266a:  f490              sd                      a2,40(s1)
0x0002266c:  f090              sd                      a2,32(s1)
0x0002266e:  f88c              sd                      a1,48(s1)
0x00022670:  e494              sd                      a3,8(s1)
0x00022672:  ec94              sd                      a3,24(s1)
0x00022674:  c098              sw                      a4,0(s1)
0x00022676:  f8a04de3          bgtz                    a0,-102                 # 0x22610

----------------
IN: _IO_new_file_overflow
0x0002267a:  2027f793          andi                    a5,a5,514
0x0002267e:  dbc9              beqz                    a5,-110                 # 0x22610

----------------
IN: _IO_new_file_overflow
0x00022680:  f890              sd                      a2,48(s1)
0x00022682:  59fd              addi                    s3,zero,-1
0x00022684:  f93919e3          bne                     s2,s3,-110              # 0x22616

----------------
IN: _IO_new_file_overflow
0x00022688:  708c              ld                      a1,32(s1)
0x0002268a:  7402              ld                      s0,32(sp)
0x0002268c:  6942              ld                      s2,16(sp)
0x0002268e:  69a2              ld                      s3,8(sp)
0x00022690:  70a2              ld                      ra,40(sp)
0x00022692:  8526              mv                      a0,s1
0x00022694:  64e2              ld                      s1,24(sp)
0x00022696:  8e0d              sub                     a2,a2,a1
0x00022698:  6145              addi                    sp,sp,48
0x0002269a:  e64ff06f          j                       -2460                   # 0x21cfe

----------------
IN: _IO_new_do_write
0x00021cfe:  e219              bnez                    a2,6                    # 0x21d04

----------------
IN: _IO_new_do_write
0x00021d00:  4501              mv                      a0,zero
0x00021d02:  8082              ret                     

----------------
IN: _IO_new_file_xsputn
0x00022ee4:  57fd              addi                    a5,zero,-1
0x00022ee6:  06f50463          beq                     a0,a5,104               # 0x22f4e

----------------
IN: _IO_new_file_xsputn
0x00022eea:  60bc              ld                      a5,64(s1)
0x00022eec:  7c94              ld                      a3,56(s1)
0x00022eee:  07f00713          addi                    a4,zero,127
0x00022ef2:  8f95              sub                     a5,a5,a3
0x00022ef4:  02f77c63          bleu                    a5,a4,56                # 0x22f2c

----------------
IN: _IO_new_file_xsputn
0x00022ef8:  02f9f7b3          remu                    a5,s3,a5
0x00022efc:  40f98ab3          sub                     s5,s3,a5
0x00022f00:  02f99d63          bne                     s3,a5,58                # 0x22f3a

----------------
IN: _IO_new_file_xsputn
0x00022f04:  02098663          beqz                    s3,44                   # 0x22f30

----------------
IN: _IO_new_file_xsputn
0x00022f08:  864e              mv                      a2,s3
0x00022f0a:  015905b3          add                     a1,s2,s5
0x00022f0e:  8526              mv                      a0,s1
0x00022f10:  84aef0ef          jal                     ra,-69558               # 0x11f5a

----------------
IN: _IO_default_xsputn
0x00011f5a:  ce71              beqz                    a2,220                  # 0x12036

----------------
IN: _IO_default_xsputn
0x00011f5c:  711d              addi                    sp,sp,-96
0x00011f5e:  e8a2              sd                      s0,80(sp)
0x00011f60:  e4a6              sd                      s1,72(sp)
0x00011f62:  fc4e              sd                      s3,56(sp)
0x00011f64:  f852              sd                      s4,48(sp)
0x00011f66:  f456              sd                      s5,40(sp)
0x00011f68:  f05a              sd                      s6,32(sp)
0x00011f6a:  ec5e              sd                      s7,24(sp)
0x00011f6c:  e862              sd                      s8,16(sp)
0x00011f6e:  e466              sd                      s9,8(sp)
0x00011f70:  ec86              sd                      ra,88(sp)
0x00011f72:  e0ca              sd                      s2,64(sp)
0x00011f74:  1080              addi                    s0,sp,96
0x00011f76:  6b05              lui                     s6,1
0x00011f78:  8ab2              mv                      s5,a2
0x00011f7a:  8a2a              mv                      s4,a0
0x00011f7c:  84ae              mv                      s1,a1
0x00011f7e:  89b2              mv                      s3,a2
0x00011f80:  4cd1              addi                    s9,zero,20
0x00011f82:  0006fc17          auipc                   s8,111                  # 0x80f82
0x00011f86:  dc6c0c13          addi                    s8,s8,-570
0x00011f8a:  92fb0b13          addi                    s6,s6,-1745
0x00011f8e:  5bfd              addi                    s7,zero,-1
0x00011f90:  028a3503          ld                      a0,40(s4)
0x00011f94:  030a3903          ld                      s2,48(s4)
0x00011f98:  01257d63          bleu                    s2,a0,26                # 0x11fb2

----------------
IN: _IO_default_xsputn
0x00011fb2:  06098163          beqz                    s3,98                   # 0x12014

----------------
IN: _IO_default_xsputn
0x00011fb6:  0d8a3903          ld                      s2,216(s4)
0x00011fba:  418907b3          sub                     a5,s2,s8
0x00011fbe:  06fb6963          bgtu                    a5,s6,114               # 0x12030

----------------
IN: _IO_default_xsputn
0x00011fc2:  0004c583          lbu                     a1,0(s1)
0x00011fc6:  01893783          ld                      a5,24(s2)
0x00011fca:  8552              mv                      a0,s4
0x00011fcc:  0485              addi                    s1,s1,1
0x00011fce:  9782              jalr                    ra,a5,0

----------------
IN: _IO_new_file_overflow
0x0002260c:  c37d              beqz                    a4,230                  # 0x226f2

----------------
IN: _IO_new_file_overflow
0x0002260e:  7510              ld                      a2,40(a0)
0x00022610:  59fd              addi                    s3,zero,-1
0x00022612:  07390b63          beq                     s2,s3,118               # 0x22688

----------------
IN: _IO_new_file_overflow
0x00022616:  60bc              ld                      a5,64(s1)
0x00022618:  0ac78063          beq                     a5,a2,160               # 0x226b8

----------------
IN: _IO_new_file_overflow
0x0002261c:  00160793          addi                    a5,a2,1
0x00022620:  f49c              sd                      a5,40(s1)
0x00022622:  01260023          sb                      s2,0(a2)
0x00022626:  409c              lw                      a5,0(s1)
0x00022628:  0027f713          andi                    a4,a5,2
0x0002262c:  eb2d              bnez                    a4,114                  # 0x2269e

----------------
IN: _IO_new_file_overflow
0x0002262e:  2007f793          andi                    a5,a5,512
0x00022632:  c781              beqz                    a5,8                    # 0x2263a

----------------
IN: _IO_new_file_overflow
0x00022634:  47a9              addi                    a5,zero,10
0x00022636:  06f90463          beq                     s2,a5,104               # 0x2269e

----------------
IN: _IO_new_file_overflow
0x0002263a:  0ff97513          andi                    a0,s2,255
0x0002263e:  69a2              ld                      s3,8(sp)
0x00022640:  6942              ld                      s2,16(sp)
0x00022642:  70a2              ld                      ra,40(sp)
0x00022644:  7402              ld                      s0,32(sp)
0x00022646:  64e2              ld                      s1,24(sp)
0x00022648:  6145              addi                    sp,sp,48
0x0002264a:  8082              ret                     

----------------
IN: _IO_default_xsputn
0x00011fd0:  05750063          beq                     a0,s7,64                # 0x12010

----------------
IN: _IO_default_xsputn
0x00011fd4:  19fd              addi                    s3,s3,-1
0x00011fd6:  bf6d              j                       -70                     # 0x11f90

----------------
IN: _IO_default_xsputn
0x00011f90:  028a3503          ld                      a0,40(s4)
0x00011f94:  030a3903          ld                      s2,48(s4)
0x00011f98:  01257d63          bleu                    s2,a0,26                # 0x11fb2

----------------
IN: _IO_default_xsputn
0x00012014:  60e6              ld                      ra,88(sp)
0x00012016:  6446              ld                      s0,80(sp)
0x00012018:  64a6              ld                      s1,72(sp)
0x0001201a:  6906              ld                      s2,64(sp)
0x0001201c:  79e2              ld                      s3,56(sp)
0x0001201e:  7a42              ld                      s4,48(sp)
0x00012020:  7b02              ld                      s6,32(sp)
0x00012022:  6be2              ld                      s7,24(sp)
0x00012024:  6c42              ld                      s8,16(sp)
0x00012026:  6ca2              ld                      s9,8(sp)
0x00012028:  8556              mv                      a0,s5
0x0001202a:  7aa2              ld                      s5,40(sp)
0x0001202c:  6125              addi                    sp,sp,96
0x0001202e:  8082              ret                     

----------------
IN: _IO_new_file_xsputn
0x00022f14:  41350533          sub                     a0,a0,s3
0x00022f18:  9552              add                     a0,a0,s4
0x00022f1a:  70e2              ld                      ra,56(sp)
0x00022f1c:  7442              ld                      s0,48(sp)
0x00022f1e:  74a2              ld                      s1,40(sp)
0x00022f20:  7902              ld                      s2,32(sp)
0x00022f22:  69e2              ld                      s3,24(sp)
0x00022f24:  6a42              ld                      s4,16(sp)
0x00022f26:  6aa2              ld                      s5,8(sp)
0x00022f28:  6121              addi                    sp,sp,64
0x00022f2a:  8082              ret                     

----------------
IN: __printf_buffer_flush_to_file
0x0003b284:  03250263          beq                     a0,s2,36                # 0x3b2a8

----------------
IN: __printf_buffer_flush_to_file
0x0003b2a8:  749c              ld                      a5,40(s1)
0x0003b2aa:  7798              ld                      a4,40(a5)
0x0003b2ac:  7b9c              ld                      a5,48(a5)
0x0003b2ae:  00f77463          bleu                    a5,a4,8                 # 0x3b2b6

----------------
IN: __printf_buffer_flush_to_file
0x0003b2b6:  70e2              ld                      ra,56(sp)
0x0003b2b8:  7442              ld                      s0,48(sp)
0x0003b2ba:  0134b823          sd                      s3,16(s1)
0x0003b2be:  0144b423          sd                      s4,8(s1)
0x0003b2c2:  0144b023          sd                      s4,0(s1)
0x0003b2c6:  7902              ld                      s2,32(sp)
0x0003b2c8:  6a42              ld                      s4,16(sp)
0x0003b2ca:  6aa2              ld                      s5,8(sp)
0x0003b2cc:  74a2              ld                      s1,40(sp)
0x0003b2ce:  69e2              ld                      s3,24(sp)
0x0003b2d0:  6121              addi                    sp,sp,64
0x0003b2d2:  8082              ret                     

----------------
IN: __printf_buffer_to_file_done
0x0003b342:  6442              ld                      s0,16(sp)
0x0003b344:  60e2              ld                      ra,24(sp)
0x0003b346:  8526              mv                      a0,s1
0x0003b348:  64a2              ld                      s1,8(sp)
0x0003b34a:  6105              addi                    sp,sp,32
0x0003b34c:  ca3ff06f          j                       -862                    # 0x3afee

----------------
IN: __printf_buffer_done
0x0003afee:  1141              addi                    sp,sp,-16
0x0003aff0:  e422              sd                      s0,8(sp)
0x0003aff2:  0800              addi                    s0,sp,16
0x0003aff4:  511c              lw                      a5,32(a0)
0x0003aff6:  cf8d              beqz                    a5,58                   # 0x3b030

----------------
IN: __printf_buffer_done
0x0003aff8:  6518              ld                      a4,8(a0)
0x0003affa:  6110              ld                      a2,0(a0)
0x0003affc:  6d1c              ld                      a5,24(a0)
0x0003affe:  4681              mv                      a3,zero

----------------
IN: __printf_buffer_done
0x0003b000:  8f11              sub                     a4,a4,a2
0x0003b002:  97ba              add                     a5,a5,a4
0x0003b004:  0207c863          bltz                    a5,48                   # 0x3b034

----------------
IN: __printf_buffer_done
0x0003b008:  02e7e663          bgtu                    a4,a5,44                # 0x3b034

----------------
IN: __printf_buffer_done
0x0003b00c:  0007851b          sext.w                  a0,a5
0x0003b010:  00a79663          bne                     a5,a0,12                # 0x3b01c

----------------
IN: __printf_buffer_done
0x0003b014:  e691              bnez                    a3,12                   # 0x3b020

----------------
IN: __printf_buffer_done
0x0003b016:  6422              ld                      s0,8(sp)
0x0003b018:  0141              addi                    sp,sp,16
0x0003b01a:  8082              ret                     

----------------
IN: __vfprintf_internal
0x0001fbe6:  892a              mv                      s2,a0
0x0001fbe8:  bf21              j                       -232                    # 0x1fb00

----------------
IN: __vfprintf_internal
0x0001fb00:  fa843703          ld                      a4,-88(s0)
0x0001fb04:  000b3783          ld                      a5,0(s6)
0x0001fb08:  8fb9              xor                     a5,a5,a4
0x0001fb0a:  4701              mv                      a4,zero
0x0001fb0c:  12079063          bnez                    a5,288                  # 0x1fc2c

----------------
IN: __vfprintf_internal
0x0001fb10:  70b2              ld                      ra,296(sp)
0x0001fb12:  7412              ld                      s0,288(sp)
0x0001fb14:  64f2              ld                      s1,280(sp)
0x0001fb16:  6a12              ld                      s4,256(sp)
0x0001fb18:  7aee              ld                      s5,248(sp)
0x0001fb1a:  7b4e              ld                      s6,240(sp)
0x0001fb1c:  854a              mv                      a0,s2
0x0001fb1e:  6952              ld                      s2,272(sp)
0x0001fb20:  6155              addi                    sp,sp,304
0x0001fb22:  8082              ret                     

----------------
IN: ___printf_chk
0x00019e9e:  fd843703          ld                      a4,-40(s0)
0x00019ea2:  609c              ld                      a5,0(s1)
0x00019ea4:  8fb9              xor                     a5,a5,a4
0x00019ea6:  4701              mv                      a4,zero
0x00019ea8:  e791              bnez                    a5,12                   # 0x19eb4

----------------
IN: ___printf_chk
0x00019eaa:  70a2              ld                      ra,40(sp)
0x00019eac:  7402              ld                      s0,32(sp)
0x00019eae:  64e2              ld                      s1,24(sp)
0x00019eb0:  6125              addi                    sp,sp,96
0x00019eb2:  8082              ret                     

----------------
IN: main
0x000104de:  1000              addi                    s0,sp,32
0x000104e0:  8522              mv                      a0,s0
0x000104e2:  168000ef          jal                     ra,360                  # 0x1064a

----------------
IN: printVector
0x0001064a:  1101              addi                    sp,sp,-32
0x0001064c:  e822              sd                      s0,16(sp)
0x0001064e:  e426              sd                      s1,8(sp)
0x00010650:  e04a              sd                      s2,0(sp)
0x00010652:  ec06              sd                      ra,24(sp)
0x00010654:  842a              mv                      s0,a0
0x00010656:  01450913          addi                    s2,a0,20
0x0001065a:  00042497          auipc                   s1,66                   # 0x5265a
0x0001065e:  7a648493          addi                    s1,s1,1958
0x00010662:  00042787          flw                     fa5,0(s0)
0x00010666:  85a6              mv                      a1,s1
0x00010668:  4509              addi                    a0,zero,2
0x0001066a:  420787d3          fcvt.d.s                rne,fa5,fa5
0x0001066e:  0411              addi                    s0,s0,4
0x00010670:  e2078653          fmv.x.d                 a2,fa5
0x00010674:  7e2090ef          jal                     ra,38882                # 0x19e56

----------------
IN: __vfprintf_internal
0x0001fb24:  577d              addi                    a4,zero,-1
0x0001fb26:  f6e78fe3          beq                     a5,a4,-130              # 0x1faa4

----------------
IN: __vfprintf_internal
0x0001faa4:  4098              lw                      a4,0(s1)
0x0001faa6:  00877793          andi                    a5,a4,8
0x0001faaa:  14079c63          bnez                    a5,344                  # 0x1fc02

----------------
IN: __strchrnul
0x00018942:  0807f713          andi                    a4,a5,128
0x00018946:  8532              mv                      a0,a2
0x00018948:  fb75              bnez                    a4,-12                  # 0x1893c

----------------
IN: __printf_buffer_write
0x0003b3da:  70a2              ld                      ra,40(sp)
0x0003b3dc:  7402              ld                      s0,32(sp)
0x0003b3de:  6942              ld                      s2,16(sp)
0x0003b3e0:  6145              addi                    sp,sp,48
0x0003b3e2:  8082              ret                     

----------------
IN: __printf_buffer
0x0001e5e2:  0006a797          auipc                   a5,106                  # 0x885e2
0x0001e5e6:  42e7b783          ld                      a5,1070(a5)
0x0001e5ea:  55513c23          sd                      s5,1368(sp)
0x0001e5ee:  b0f43023          sd                      a5,-1280(s0)
0x0001e5f2:  c399              beqz                    a5,6                    # 0x1e5f8

----------------
IN: __printf_buffer
0x0001e5f8:  0006a797          auipc                   a5,106                  # 0x885f8
0x0001e5fc:  4087b783          ld                      a5,1032(a5)
0x0001e600:  6a0795e3          bnez                    a5,3754                 # 0x1f4aa

----------------
IN: __printf_buffer
0x0001e604:  0006a797          auipc                   a5,106                  # 0x88604
0x0001e608:  4247b783          ld                      a5,1060(a5)
0x0001e60c:  68079fe3          bnez                    a5,3742                 # 0x1f4aa

----------------
IN: __printf_buffer
0x0001e610:  00064797          auipc                   a5,100                  # 0x82610
0x0001e614:  8e87b783          ld                      a5,-1816(a5)
0x0001e618:  001b7713          andi                    a4,s6,1
0x0001e61c:  55713423          sd                      s7,1352(sp)
0x0001e620:  acf43023          sd                      a5,-1344(s0)
0x0001e624:  57fd              addi                    a5,zero,-1
0x0001e626:  aaf43823          sd                      a5,-1360(s0)
0x0001e62a:  6785              lui                     a5,1
0x0001e62c:  8ff78793          addi                    a5,a5,-1793
0x0001e630:  55813023          sd                      s8,1344(sp)
0x0001e634:  53913c23          sd                      s9,1336(sp)
0x0001e638:  53a13823          sd                      s10,1328(sp)
0x0001e63c:  53b13423          sd                      s11,1320(sp)
0x0001e640:  aa043c23          sd                      zero,-1352(s0)
0x0001e644:  4a81              mv                      s5,zero
0x0001e646:  aae43423          sd                      a4,-1368(s0)
0x0001e64a:  aaf43023          sd                      a5,-1376(s0)
0x0001e64e:  001a4d83          lbu                     s11,1(s4)
0x0001e652:  0a05              addi                    s4,s4,1
0x0001e654:  b5443423          sd                      s4,-1208(s0)
0x0001e658:  fe0d871b          addiw                   a4,s11,-32
0x0001e65c:  0ff77613          andi                    a2,a4,255
0x0001e660:  05a00693          addi                    a3,zero,90
0x0001e664:  08c6f863          bleu                    a2,a3,144               # 0x1e6f4

----------------
IN: __printf_buffer
0x0001e6f4:  0003b797          auipc                   a5,59                   # 0x596f4
0x0001e6f8:  53c78793          addi                    a5,a5,1340
0x0001e6fc:  2701              sext.w                  a4,a4
0x0001e6fe:  973e              add                     a4,a4,a5
0x0001e700:  00074703          lbu                     a4,0(a4)
0x0001e704:  02000793          addi                    a5,zero,32
0x0001e708:  b0f43823          sd                      a5,-1264(s0)
0x0001e70c:  070e              slli                    a4,a4,3
0x0001e70e:  00060797          auipc                   a5,96                   # 0x7e70e
0x0001e712:  cc278793          addi                    a5,a5,-830
0x0001e716:  973e              add                     a4,a4,a5
0x0001e718:  10073703          ld                      a4,256(a4)
0x0001e71c:  b2043c23          sd                      zero,-1224(s0)
0x0001e720:  59fd              addi                    s3,zero,-1
0x0001e722:  4a01              mv                      s4,zero
0x0001e724:  4c81              mv                      s9,zero
0x0001e726:  4d01              mv                      s10,zero
0x0001e728:  4c01              mv                      s8,zero
0x0001e72a:  4b81              mv                      s7,zero
0x0001e72c:  4881              mv                      a7,zero
0x0001e72e:  b2043823          sd                      zero,-1232(s0)
0x0001e732:  4b01              mv                      s6,zero
0x0001e734:  b0043c23          sd                      zero,-1256(s0)
0x0001e738:  b2043023          sd                      zero,-1248(s0)
0x0001e73c:  8702              jr                      a4

----------------
IN: __printf_buffer
0x0001eee6:  b4843703          ld                      a4,-1208(s0)
0x0001eeea:  02a00693          addi                    a3,zero,42
0x0001eeee:  00174d83          lbu                     s11,1(a4)
0x0001eef2:  00170613          addi                    a2,a4,1
0x0001eef6:  b4c43423          sd                      a2,-1208(s0)
0x0001eefa:  6add8e63          beq                     s11,a3,1724             # 0x1f5b6

----------------
IN: __printf_buffer
0x0001eefe:  fd0d871b          addiw                   a4,s11,-48
0x0001ef02:  46a5              addi                    a3,zero,9
0x0001ef04:  4981              mv                      s3,zero
0x0001ef06:  0ce6f3e3          bleu                    a4,a3,2246              # 0x1f7cc

----------------
IN: __printf_buffer
0x0001f7cc:  b4840513          addi                    a0,s0,-1208
0x0001f7d0:  b3143423          sd                      a7,-1240(s0)
0x0001f7d4:  d51fc0ef          jal                     ra,-12976               # 0x1c524

----------------
IN: read_int
0x0001c524:  1141              addi                    sp,sp,-16
0x0001c526:  e422              sd                      s0,8(sp)
0x0001c528:  0800              addi                    s0,sp,16
0x0001c52a:  611c              ld                      a5,0(a0)
0x0001c52c:  45a5              addi                    a1,zero,9
0x0001c52e:  862a              mv                      a2,a0
0x0001c530:  00178713          addi                    a4,a5,1
0x0001c534:  0007c683          lbu                     a3,0(a5)
0x0001c538:  e118              sd                      a4,0(a0)
0x0001c53a:  0017c783          lbu                     a5,1(a5)
0x0001c53e:  fd06851b          addiw                   a0,a3,-48
0x0001c542:  fd07879b          addiw                   a5,a5,-48
0x0001c546:  04f5e163          bgtu                    a5,a1,66                # 0x1c588

----------------
IN: read_int
0x0001c588:  6422              ld                      s0,8(sp)
0x0001c58a:  0141              addi                    sp,sp,16
0x0001c58c:  8082              ret                     

----------------
IN: __printf_buffer
0x0001f7d8:  57fd              addi                    a5,zero,-1
0x0001f7da:  89aa              mv                      s3,a0
0x0001f7dc:  0ef50a63          beq                     a0,a5,244               # 0x1f8d0

----------------
IN: __printf_buffer
0x0001f7e0:  b4843783          ld                      a5,-1208(s0)
0x0001f7e4:  b2843883          ld                      a7,-1240(s0)
0x0001f7e8:  0007cd83          lbu                     s11,0(a5)
0x0001f7ec:  f1eff06f          j                       -2274                   # 0x1ef0a

----------------
IN: __printf_buffer
0x0001ef0a:  fe0d871b          addiw                   a4,s11,-32
0x0001ef0e:  0ff77613          andi                    a2,a4,255
0x0001ef12:  05a00693          addi                    a3,zero,90
0x0001ef16:  f4c6e963          bgtu                    a2,a3,-2222             # 0x1e668

----------------
IN: __printf_buffer
0x0001ef1a:  0003b797          auipc                   a5,59                   # 0x59f1a
0x0001ef1e:  d1678793          addi                    a5,a5,-746
0x0001ef22:  2701              sext.w                  a4,a4
0x0001ef24:  973e              add                     a4,a4,a5
0x0001ef26:  00074703          lbu                     a4,0(a4)
0x0001ef2a:  0005f797          auipc                   a5,95                   # 0x7df2a
0x0001ef2e:  4a678793          addi                    a5,a5,1190
0x0001ef32:  070e              slli                    a4,a4,3
0x0001ef34:  973e              add                     a4,a4,a5
0x0001ef36:  30073703          ld                      a4,768(a4)
0x0001ef3a:  8702              jr                      a4

----------------
IN: __printf_buffer
0x0001e782:  aa843783          ld                      a5,-1368(s0)
0x0001e786:  c399              beqz                    a5,6                    # 0x1e78c

----------------
IN: __printf_buffer
0x0001e78c:  875e              mv                      a4,s7
0x0001e78e:  b2043783          ld                      a5,-1248(s0)
0x0001e792:  001c1c1b          slliw                   s8,s8,1
0x0001e796:  01876733          or                      a4,a4,s8
0x0001e79a:  0037969b          slliw                   a3,a5,3
0x0001e79e:  b1843783          ld                      a5,-1256(s0)
0x0001e7a2:  002d131b          slliw                   t1,s10,2
0x0001e7a6:  00676733          or                      a4,a4,t1
0x0001e7aa:  8f55              or                      a4,a4,a3
0x0001e7ac:  0047969b          slliw                   a3,a5,4
0x0001e7b0:  b3043783          ld                      a5,-1232(s0)
0x0001e7b4:  8f55              or                      a4,a4,a3
0x0001e7b6:  005b1b1b          slliw                   s6,s6,5
0x0001e7ba:  0067969b          slliw                   a3,a5,6
0x0001e7be:  b3843783          ld                      a5,-1224(s0)
0x0001e7c2:  01676733          or                      a4,a4,s6
0x0001e7c6:  8f55              or                      a4,a4,a3
0x0001e7c8:  0078989b          slliw                   a7,a7,7
0x0001e7cc:  00b7969b          slliw                   a3,a5,11
0x0001e7d0:  01176733          or                      a4,a4,a7
0x0001e7d4:  8f55              or                      a4,a4,a3
0x0001e7d6:  aa043683          ld                      a3,-1376(s0)
0x0001e7da:  b6042e23          sw                      zero,-1156(s0)
0x0001e7de:  000d879b          sext.w                  a5,s11
0x0001e7e2:  8f75              and                     a4,a4,a3
0x0001e7e4:  b6e41e23          sh                      a4,-1156(s0)
0x0001e7e8:  b1043703          ld                      a4,-1264(s0)
0x0001e7ec:  b7342823          sw                      s3,-1168(s0)
0x0001e7f0:  b7442a23          sw                      s4,-1164(s0)
0x0001e7f4:  b6f42c23          sw                      a5,-1160(s0)
0x0001e7f8:  b8e42023          sw                      a4,-1152(s0)
0x0001e7fc:  0c0b9063          bnez                    s7,192                  # 0x1e8bc

----------------
IN: __printf_buffer
0x0001e800:  00093787          fld                     fa5,0(s2)
0x0001e804:  0921              addi                    s2,s2,8
0x0001e806:  b6f43027          fsd                     fa5,-1184(s0)
0x0001e80a:  ac043703          ld                      a4,-1344(s0)
0x0001e80e:  0df7f793          andi                    a5,a5,223
0x0001e812:  b7040613          addi                    a2,s0,-1168
0x0001e816:  004706b3          add                     a3,a4,tp
0x0001e81a:  b6040713          addi                    a4,s0,-1184
0x0001e81e:  b4e43c23          sd                      a4,-1192(s0)
0x0001e822:  04100713          addi                    a4,zero,65
0x0001e826:  628c              ld                      a1,0(a3)
0x0001e828:  8526              mv                      a0,s1
0x0001e82a:  b5840693          addi                    a3,s0,-1192
0x0001e82e:  30e782e3          beq                     a5,a4,2820              # 0x1f332

----------------
IN: __printf_buffer
0x0001e832:  51e1e0ef          jal                     ra,124190               # 0x3cd50

----------------
IN: __printf_fp_l_buffer
0x0003cd50:  7151              addi                    sp,sp,-240
0x0003cd52:  f1a2              sd                      s0,224(sp)
0x0003cd54:  eda6              sd                      s1,216(sp)
0x0003cd56:  e9ca              sd                      s2,208(sp)
0x0003cd58:  e1d2              sd                      s4,192(sp)
0x0003cd5a:  fd56              sd                      s5,184(sp)
0x0003cd5c:  f95a              sd                      s6,176(sp)
0x0003cd5e:  f55e              sd                      s7,168(sp)
0x0003cd60:  1980              addi                    s0,sp,240
0x0003cd62:  f586              sd                      ra,232(sp)
0x0003cd64:  e5ce              sd                      s3,200(sp)
0x0003cd66:  f162              sd                      s8,160(sp)
0x0003cd68:  00c65903          lhu                     s2,12(a2)
0x0003cd6c:  00045b17          auipc                   s6,69                   # 0x81d6c
0x0003cd70:  ea4b3b03          ld                      s6,-348(s6)
0x0003cd74:  000b3783          ld                      a5,0(s6)
0x0003cd78:  faf43423          sd                      a5,-88(s0)
0x0003cd7c:  4781              mv                      a5,zero
0x0003cd7e:  10097793          andi                    a5,s2,256
0x0003cd82:  8a32              mv                      s4,a2
0x0003cd84:  8baa              mv                      s7,a0
0x0003cd86:  84ae              mv                      s1,a1
0x0003cd88:  8ab6              mv                      s5,a3
0x0003cd8a:  0e078763          beqz                    a5,238                  # 0x3ce78

----------------
IN: __printf_fp_l_buffer
0x0003ce78:  659c              ld                      a5,8(a1)
0x0003ce7a:  0407bc03          ld                      s8,64(a5)
0x0003ce7e:  0387b983          ld                      s3,56(a5)
0x0003ce82:  f5843023          sd                      s8,-192(s0)
0x0003ce86:  f5343423          sd                      s3,-184(s0)
0x0003ce8a:  bf31              j                       -228                    # 0x3cda6

----------------
IN: __printf_fp_l_buffer
0x0003cda6:  8562              mv                      a0,s8
0x0003cda8:  bf7db0ef          jal                     ra,-148490              # 0x1899e

----------------
IN: __printf_fp_l_buffer
0x0003cdac:  0ff57713          andi                    a4,a0,255
0x0003cdb0:  f4e408a3          sb                      a4,-175(s0)
0x0003cdb4:  0019c783          lbu                     a5,1(s3)
0x0003cdb8:  6605              lui                     a2,1
0x0003cdba:  80060613          addi                    a2,a2,-2048
0x0003cdbe:  000aba83          ld                      s5,0(s5)
0x0003cdc2:  00c97933          and                     s2,s2,a2
0x0003cdc6:  e781              bnez                    a5,8                    # 0x3cdce

----------------
IN: __printf_fp_l_buffer
0x0003cdc8:  4785              addi                    a5,zero,1
0x0003cdca:  08e7f763          bleu                    a4,a5,142               # 0x3ce58

----------------
IN: __printf_fp_l_buffer
0x0003ce58:  02090a63          beqz                    s2,52                   # 0x3ce8c

----------------
IN: __printf_fp_l_buffer
0x0003ce8c:  0009c683          lbu                     a3,0(s3)
0x0003ce90:  000c4603          lbu                     a2,0(s8)
0x0003ce94:  87d6              mv                      a5,s5
0x0003ce96:  8752              mv                      a4,s4
0x0003ce98:  85a6              mv                      a1,s1
0x0003ce9a:  855e              mv                      a0,s7
0x0003ce9c:  e4efe0ef          jal                     ra,-6578                # 0x3b4ea

----------------
IN: __printf_fp_buffer_1.isra.0
0x0003b4ea:  7149              addi                    sp,sp,-368
0x0003b4ec:  f2a2              sd                      s0,352(sp)
0x0003b4ee:  eea6              sd                      s1,344(sp)
0x0003b4f0:  eaca              sd                      s2,336(sp)
0x0003b4f2:  e66e              sd                      s11,264(sp)
0x0003b4f4:  f686              sd                      ra,360(sp)
0x0003b4f6:  e6ce              sd                      s3,328(sp)
0x0003b4f8:  e2d2              sd                      s4,320(sp)
0x0003b4fa:  fe56              sd                      s5,312(sp)
0x0003b4fc:  fa5a              sd                      s6,304(sp)
0x0003b4fe:  f65e              sd                      s7,296(sp)
0x0003b500:  f262              sd                      s8,288(sp)
0x0003b502:  ee66              sd                      s9,280(sp)
0x0003b504:  ea6a              sd                      s10,272(sp)
0x0003b506:  1a80              addi                    s0,sp,368
0x0003b508:  00c75903          lhu                     s2,12(a4)
0x0003b50c:  00046497          auipc                   s1,70                   # 0x8150c
0x0003b510:  7044b483          ld                      s1,1796(s1)
0x0003b514:  8dba              mv                      s11,a4
0x0003b516:  eed43423          sd                      a3,-280(s0)
0x0003b51a:  6098              ld                      a4,0(s1)
0x0003b51c:  f8e43423          sd                      a4,-120(s0)
0x0003b520:  4701              mv                      a4,zero
0x0003b522:  4685              addi                    a3,zero,1
0x0003b524:  10097713          andi                    a4,s2,256
0x0003b528:  eab43c23          sd                      a1,-328(s0)
0x0003b52c:  ecc43823          sd                      a2,-304(s0)
0x0003b530:  ecd43423          sd                      a3,-312(s0)
0x0003b534:  84aa              mv                      s1,a0
0x0003b536:  c701              beqz                    a4,8                    # 0x3b53e

----------------
IN: __printf_fp_buffer_1.isra.0
0x0003b53e:  f0042623          sw                      zero,-244(s0)
0x0003b542:  f2042423          sw                      zero,-216(s0)
0x0003b546:  00197713          andi                    a4,s2,1
0x0003b54a:  cb35              beqz                    a4,116                  # 0x3b5be

----------------
IN: __printf_fp_buffer_1.isra.0
0x0003b5be:  0007b983          ld                      s3,0(a5)
0x0003b5c2:  f20987d3          fmv.d.x                 fa5,s3
0x0003b5c6:  a2f7a7d3          feq.d                   a5,fa5,fa5
0x0003b5ca:  56078263          beqz                    a5,1380                 # 0x3bb2e

----------------
IN: __printf_fp_buffer_1.isra.0
0x0003b5ce:  00020797          auipc                   a5,32                   # 0x5b5ce
0x0003b5d2:  0a27b707          fld                     fa4,162(a5)
0x0003b5d6:  00102773          frflags                 a4

----------------
IN: __printf_fp_buffer_1.isra.0
0x0003b5da:  22f7a7d3          fabs.d                  fa5,fa5
0x0003b5de:  a2f717d3          flt.d                   a5,fa4,fa5
0x0003b5e2:  00171073          fsflags                 zero,a4

----------------
IN: __printf_fp_buffer_1.isra.0
0x0003b5e6:  12079e63          bnez                    a5,316                  # 0x3b722

----------------
IN: __printf_fp_buffer_1.isra.0
0x0003b5ea:  f2098553          fmv.d.x                 fa0,s3
0x0003b5ee:  f6840913          addi                    s2,s0,-152
0x0003b5f2:  f3040613          addi                    a2,s0,-208
0x0003b5f6:  f0c40693          addi                    a3,s0,-244
0x0003b5fa:  4589              addi                    a1,zero,2
0x0003b5fc:  854a              mv                      a0,s2
0x0003b5fe:  1140a0ef          jal                     ra,41236                # 0x45712

----------------
IN: __mpn_extract_double
0x00045712:  e2050753          fmv.x.d                 a4,fa0
0x00045716:  1141              addi                    sp,sp,-16
0x00045718:  001007b7          lui                     a5,256
0x0004571c:  e422              sd                      s0,8(sp)
0x0004571e:  17fd              addi                    a5,a5,-1
0x00045720:  0800              addi                    s0,sp,16
0x00045722:  03475593          srli                    a1,a4,52
0x00045726:  00072893          slti                    a7,a4,0
0x0004572a:  7ff5f593          andi                    a1,a1,2047
0x0004572e:  1782              slli                    a5,a5,32
0x00045730:  02071813          slli                    a6,a4,32
0x00045734:  0116a023          sw                      a7,0(a3)
0x00045738:  c015859b          addiw                   a1,a1,-1023
0x0004573c:  8ff9              and                     a5,a5,a4
0x0004573e:  02085813          srli                    a6,a6,32
0x00045742:  c20c              sw                      a1,0(a2)
0x00045744:  0107e7b3          or                      a5,a5,a6
0x00045748:  03475693          srli                    a3,a4,52
0x0004574c:  e11c              sd                      a5,0(a0)
0x0004574e:  7ff6f693          andi                    a3,a3,2047
0x00045752:  eea1              bnez                    a3,88                   # 0x457aa

----------------
IN: __mpn_extract_double
0x000457aa:  4705              addi                    a4,zero,1
0x000457ac:  6422              ld                      s0,8(sp)
0x000457ae:  1752              slli                    a4,a4,52
0x000457b0:  8fd9              or                      a5,a5,a4
0x000457b2:  e11c              sd                      a5,0(a0)
0x000457b4:  4505              addi                    a0,zero,1
0x000457b6:  0141              addi                    sp,sp,16
0x000457b8:  8082              ret                     

----------------
IN: __printf_fp_buffer_1.isra.0
0x0003b602:  0065199b          slliw                   s3,a0,6
0x0003b606:  862a              mv                      a2,a0
0x0003b608:  fcc9899b          addiw                   s3,s3,-52
0x0003b60c:  f3042b83          lw                      s7,-208(s0)
0x0003b610:  f4c43023          sd                      a2,-192(s0)
0x0003b614:  f4043823          sd                      zero,-176(s0)
0x0003b618:  41fbd71b          sraiw                   a4,s7,31
0x0003b61c:  00ebc7b3          xor                     a5,s7,a4
0x0003b620:  9f99              subw                    a5,a5,a4
0x0003b622:  03f7879b          addiw                   a5,a5,63
0x0003b626:  4067d79b          sraiw                   a5,a5,6
0x0003b62a:  2791              addiw                   a5,a5,4
0x0003b62c:  078e              slli                    a5,a5,3
0x0003b62e:  07bd              addi                    a5,a5,15
0x0003b630:  9bc1              andi                    a5,a5,-16
0x0003b632:  40f10133          sub                     sp,sp,a5
0x0003b636:  850a              mv                      a0,sp
0x0003b638:  40f10133          sub                     sp,sp,a5
0x0003b63c:  f4243c23          sd                      sp,-168(s0)
0x0003b640:  40f10133          sub                     sp,sp,a5
0x0003b644:  f2a43c23          sd                      a0,-200(s0)
0x0003b648:  f4243423          sd                      sp,-184(s0)
0x0003b64c:  4789              addi                    a5,zero,2
0x0003b64e:  1777df63          ble                     s7,a5,382               # 0x3b7cc

----------------
IN: __printf_fp_buffer_1.isra.0
0x0003b7cc:  300bc663          bltz                    s7,780                  # 0x3bad8

----------------
IN: __printf_fp_buffer_1.isra.0
0x0003b7d0:  013b86bb          addw                    a3,s7,s3
0x0003b7d4:  03f00793          addi                    a5,zero,63
0x0003b7d8:  00d7d463          ble                     a3,a5,8                 # 0x3b7e0

----------------
IN: __printf_fp_buffer_1.isra.0
0x0003b7e0:  85ca              mv                      a1,s2
0x0003b7e2:  394090ef          jal                     ra,37780                # 0x44b76

----------------
IN: __mpn_lshift
0x00044b76:  1141              addi                    sp,sp,-16
0x00044b78:  fff60793          addi                    a5,a2,-1
0x00044b7c:  e422              sd                      s0,8(sp)
0x00044b7e:  078e              slli                    a5,a5,3
0x00044b80:  0800              addi                    s0,sp,16
0x00044b82:  00f58733          add                     a4,a1,a5
0x00044b86:  00073803          ld                      a6,0(a4)
0x00044b8a:  04000313          addi                    t1,zero,64
0x00044b8e:  40d3033b          subw                    t1,t1,a3
0x00044b92:  1679              addi                    a2,a2,-2
0x00044b94:  8e2a              mv                      t3,a0
0x00044b96:  00685533          srl                     a0,a6,t1
0x00044b9a:  02064763          bltz                    a2,46                   # 0x44bc8

----------------
IN: __mpn_lshift
0x00044bc8:  0605              addi                    a2,a2,1
0x00044bca:  6422              ld                      s0,8(sp)
0x00044bcc:  060e              slli                    a2,a2,3
0x00044bce:  9e32              add                     t3,t3,a2
0x00044bd0:  00d81833          sll                     a6,a6,a3
0x00044bd4:  010e3023          sd                      a6,0(t3)
0x00044bd8:  0141              addi                    sp,sp,16
0x00044bda:  8082              ret                     

----------------
IN: __printf_fp_buffer_1.isra.0
0x0003b7e6:  f4043783          ld                      a5,-192(s0)
0x0003b7ea:  00178713          addi                    a4,a5,1
0x0003b7ee:  f4e43023          sd                      a4,-192(s0)
0x0003b7f2:  f3843703          ld                      a4,-200(s0)
0x0003b7f6:  078e              slli                    a5,a5,3
0x0003b7f8:  97ba              add                     a5,a5,a4
0x0003b7fa:  e388              sd                      a0,0(a5)
0x0003b7fc:  f2042823          sw                      zero,-208(s0)
0x0003b800:  00046797          auipc                   a5,70                   # 0x81800
0x0003b804:  5107b783          ld                      a5,1296(a5)
0x0003b808:  008da703          lw                      a4,8(s11)
0x0003b80c:  004da583          lw                      a1,4(s11)
0x0003b810:  9792              add                     a5,a5,tp
0x0003b812:  639c              ld                      a5,0(a5)
0x0003b814:  00271613          slli                    a2,a4,2
0x0003b818:  06500693          addi                    a3,zero,101
0x0003b81c:  97b2              add                     a5,a5,a2
0x0003b81e:  0007c783          lbu                     a5,0(a5)
0x0003b822:  000da603          lw                      a2,0(s11)
0x0003b826:  eab43023          sd                      a1,-352(s0)
0x0003b82a:  eaf43423          sd                      a5,-344(s0)
0x0003b82e:  eec43023          sd                      a2,-288(s0)
0x0003b832:  54d78863          beq                     a5,a3,1360              # 0x3bd82

----------------
IN: __printf_fp_buffer_1.isra.0
0x0003b836:  ea843683          ld                      a3,-344(s0)
0x0003b83a:  06600793          addi                    a5,zero,102
0x0003b83e:  18f683e3          beq                     a3,a5,2438              # 0x3c1c4

----------------
IN: __printf_fp_buffer_1.isra.0
0x0003c1c4:  ee043703          ld                      a4,-288(s0)
0x0003c1c8:  f2d42623          sw                      a3,-212(s0)
0x0003c1cc:  00075663          bgez                    a4,12                   # 0x3c1d8

----------------
IN: __printf_fp_buffer_1.isra.0
0x0003c1d8:  f2842783          lw                      a5,-216(s0)
0x0003c1dc:  3e079063          bnez                    a5,992                  # 0x3c5bc

----------------
IN: __printf_fp_buffer_1.isra.0
0x0003c1e0:  f3042c03          lw                      s8,-208(s0)
0x0003c1e4:  57f1              addi                    a5,zero,-4
0x0003c1e6:  002c0913          addi                    s2,s8,2
0x0003c1ea:  993a              add                     s2,s2,a4
0x0003c1ec:  4527f563          bleu                    s2,a5,1098              # 0x3c636

----------------
IN: __printf_fp_buffer_1.isra.0
0x0003c636:  ee043783          ld                      a5,-288(s0)
0x0003c63a:  2c05              addiw                   s8,s8,1
0x0003c63c:  4a85              addi                    s5,zero,1
0x0003c63e:  eef43823          sd                      a5,-272(s0)
0x0003c642:  89be              mv                      s3,a5
0x0003c644:  800007b7          lui                     a5,-524288
0x0003c648:  fff7c793          not                     a5,a5
0x0003c64c:  eef43023          sd                      a5,-288(s0)
0x0003c650:  f4e97c63          bleu                    a4,s2,-2216             # 0x3bda8

----------------
IN: __printf_fp_buffer_1.isra.0
0x0003bda8:  0909              addi                    s2,s2,2
0x0003bdaa:  854a              mv                      a0,s2
0x0003bdac:  737030ef          jal                     ra,16182                # 0x3fce2

----------------
IN: __libc_alloca_cutoff
0x0003fce2:  1141              addi                    sp,sp,-16
0x0003fce4:  e422              sd                      s0,8(sp)
0x0003fce6:  0800              addi                    s0,sp,16
0x0003fce8:  d3823783          ld                      a5,-712(tp)
0x0003fcec:  6741              lui                     a4,16
0x0003fcee:  8389              srli                    a5,a5,2
0x0003fcf0:  fff78693          addi                    a3,a5,-1
0x0003fcf4:  00e6e363          bgtu                    a4,a3,6                 # 0x3fcfa

----------------
IN: __libc_alloca_cutoff
0x0003fcf8:  67c1              lui                     a5,16
0x0003fcfa:  6422              ld                      s0,8(sp)
0x0003fcfc:  00a7b533          sltu                    a0,a5,a0
0x0003fd00:  00154513          xori                    a0,a0,1
0x0003fd04:  0141              addi                    sp,sp,16
0x0003fd06:  8082              ret                     

----------------
IN: __printf_fp_buffer_1.isra.0
0x0003bdb0:  eaa43823          sd                      a0,-336(s0)
0x0003bdb4:  28050fe3          beqz                    a0,2718                 # 0x3c852

----------------
IN: __printf_fp_buffer_1.isra.0
0x0003bdb8:  093d              addi                    s2,s2,15
0x0003bdba:  ff097913          andi                    s2,s2,-16
0x0003bdbe:  41210133          sub                     sp,sp,s2
0x0003bdc2:  4785              addi                    a5,zero,1
0x0003bdc4:  ec243023          sd                      sp,-320(s0)
0x0003bdc8:  eaf43823          sd                      a5,-336(s0)
0x0003bdcc:  ec043783          ld                      a5,-320(s0)
0x0003bdd0:  f2842a03          lw                      s4,-216(s0)
0x0003bdd4:  0789              addi                    a5,a5,2
0x0003bdd6:  eef43c23          sd                      a5,-264(s0)
0x0003bdda:  380a1263          bnez                    s4,900                  # 0x3c15e

----------------
IN: __printf_fp_buffer_1.isra.0
0x0003bdde:  6b804063          bgtz                    s8,1696                 # 0x3c47e

----------------
IN: __printf_fp_buffer_1.isra.0
0x0003c47e:  ef843a83          ld                      s5,-264(s0)
0x0003c482:  f2840913          addi                    s2,s0,-216
0x0003c486:  854a              mv                      a0,s2
0x0003c488:  0a85              addi                    s5,s5,1
0x0003c48a:  f5dfe0ef          jal                     ra,-4260                # 0x3b3e6

----------------
IN: hack_digit
0x0003b3e6:  1101              addi                    sp,sp,-32
0x0003b3e8:  e822              sd                      s0,16(sp)
0x0003b3ea:  e426              sd                      s1,8(sp)
0x0003b3ec:  ec06              sd                      ra,24(sp)
0x0003b3ee:  e04a              sd                      s2,0(sp)
0x0003b3f0:  1000              addi                    s0,sp,32
0x0003b3f2:  411c              lw                      a5,0(a0)
0x0003b3f4:  84aa              mv                      s1,a0
0x0003b3f6:  c791              beqz                    a5,12                   # 0x3b402

----------------
IN: hack_digit
0x0003b402:  749c              ld                      a5,40(s1)
0x0003b404:  6c90              ld                      a2,24(s1)
0x0003b406:  688c              ld                      a1,16(s1)
0x0003b408:  cfb5              beqz                    a5,124                  # 0x3b484

----------------
IN: hack_digit
0x0003b484:  00361493          slli                    s1,a2,3
0x0003b488:  14e1              addi                    s1,s1,-8
0x0003b48a:  94ae              add                     s1,s1,a1
0x0003b48c:  0004b903          ld                      s2,0(s1)
0x0003b490:  46a9              addi                    a3,zero,10
0x0003b492:  167d              addi                    a2,a2,-1
0x0003b494:  852e              mv                      a0,a1
0x0003b496:  193090ef          jal                     ra,39314                # 0x44e28

----------------
IN: __mpn_mul_1
0x00044e28:  1141              addi                    sp,sp,-16
0x00044e2a:  537d              addi                    t1,zero,-1
0x00044e2c:  e422              sd                      s0,8(sp)
0x00044e2e:  02035313          srli                    t1,t1,32
0x00044e32:  0800              addi                    s0,sp,16
0x00044e34:  4285              addi                    t0,zero,1
0x00044e36:  8faa              mv                      t6,a0
0x00044e38:  0206de93          srli                    t4,a3,32
0x00044e3c:  0066fe33          and                     t3,a3,t1
0x00044e40:  060e              slli                    a2,a2,3
0x00044e42:  4881              mv                      a7,zero
0x00044e44:  4501              mv                      a0,zero
0x00044e46:  1282              slli                    t0,t0,32
0x00044e48:  011587b3          add                     a5,a1,a7
0x00044e4c:  639c              ld                      a5,0(a5)
0x00044e4e:  011f8f33          add                     t5,t6,a7
0x00044e52:  08a1              addi                    a7,a7,8
0x00044e54:  0207d813          srli                    a6,a5,32
0x00044e58:  0067f7b3          and                     a5,a5,t1
0x00044e5c:  03c78733          mul                     a4,a5,t3
0x00044e60:  03c803b3          mul                     t2,a6,t3
0x00044e64:  006776b3          and                     a3,a4,t1
0x00044e68:  9301              srli                    a4,a4,32
0x00044e6a:  96aa              add                     a3,a3,a0
0x00044e6c:  02fe87b3          mul                     a5,t4,a5
0x00044e70:  979e              add                     a5,a5,t2
0x00044e72:  97ba              add                     a5,a5,a4
0x00044e74:  0067f733          and                     a4,a5,t1
0x00044e78:  1702              slli                    a4,a4,32
0x00044e7a:  9736              add                     a4,a4,a3
0x00044e7c:  00a73533          sltu                    a0,a4,a0
0x00044e80:  0207d693          srli                    a3,a5,32
0x00044e84:  030e8833          mul                     a6,t4,a6
0x00044e88:  9536              add                     a0,a0,a3
0x00044e8a:  0077f363          bleu                    t2,a5,6                 # 0x44e90

----------------
IN: __mpn_mul_1
0x00044e90:  00ef3023          sd                      a4,0(t5)
0x00044e94:  9542              add                     a0,a0,a6
0x00044e96:  fac899e3          bne                     a7,a2,-78               # 0x44e48

----------------
IN: __mpn_mul_1
0x00044e9a:  6422              ld                      s0,8(sp)
0x00044e9c:  0141              addi                    sp,sp,16
0x00044e9e:  8082              ret                     

----------------
IN: hack_digit
0x0003b49a:  60e2              ld                      ra,24(sp)
0x0003b49c:  6442              ld                      s0,16(sp)
0x0003b49e:  0309091b          addiw                   s2,s2,48
0x0003b4a2:  e088              sd                      a0,0(s1)
0x0003b4a4:  0ff97913          andi                    s2,s2,255
0x0003b4a8:  64a2              ld                      s1,8(sp)
0x0003b4aa:  854a              mv                      a0,s2
0x0003b4ac:  6902              ld                      s2,0(sp)
0x0003b4ae:  6105              addi                    sp,sp,32
0x0003b4b0:  8082              ret                     

----------------
IN: __printf_fp_buffer_1.isra.0
0x0003c48e:  2a05              addiw                   s4,s4,1
0x0003c490:  feaa8fa3          sb                      a0,-1(s5)
0x0003c494:  ff8a49e3          bgt                     s8,s4,-14               # 0x3c486

----------------
IN: __printf_fp_buffer_1.isra.0
0x0003c498:  b1ed              j                       -790                    # 0x3c182

----------------
IN: __printf_fp_buffer_1.isra.0
0x0003c182:  ef843703          ld                      a4,-264(s0)
0x0003c186:  020c1793          slli                    a5,s8,32
0x0003c18a:  9381              srli                    a5,a5,32
0x0003c18c:  97ba              add                     a5,a5,a4
0x0003c18e:  b9a9              j                       -934                    # 0x3bde8

----------------
IN: __printf_fp_buffer_1.isra.0
0x0003bde8:  00cdd703          lhu                     a4,12(s11)
0x0003bdec:  8b21              andi                    a4,a4,8
0x0003bdee:  e709              bnez                    a4,10                   # 0x3bdf8

----------------
IN: __printf_fp_buffer_1.isra.0
0x0003bdf0:  ef043703          ld                      a4,-272(s0)
0x0003bdf4:  70e05163          blez                    a4,1794                 # 0x3c4f6

----------------
IN: __printf_fp_buffer_1.isra.0
0x0003bdf8:  ee843703          ld                      a4,-280(s0)
0x0003bdfc:  00178c93          addi                    s9,a5,1
0x0003be00:  4a85              addi                    s5,zero,1
0x0003be02:  00e78023          sb                      a4,0(a5)
0x0003be06:  ef042a03          lw                      s4,-272(s0)
0x0003be0a:  ec043c23          sd                      zero,-296(s0)
0x0003be0e:  4d01              mv                      s10,zero
0x0003be10:  4b85              addi                    s7,zero,1
0x0003be12:  03000b13          addi                    s6,zero,48
0x0003be16:  000a069b          sext.w                  a3,s4
0x0003be1a:  00dd4863          bgt                     a3,s10,16               # 0x3be2a

----------------
IN: __printf_fp_buffer_1.isra.0
0x0003be2a:  854a              mv                      a0,s2
0x0003be2c:  dbaff0ef          jal                     ra,-2630                # 0x3b3e6

----------------
IN: __printf_fp_buffer_1.isra.0
0x0003be30:  00ac8023          sb                      a0,0(s9)
0x0003be34:  2d05              addiw                   s10,s10,1
0x0003be36:  0c85              addi                    s9,s9,1
0x0003be38:  25650963          beq                     a0,s6,594               # 0x3c08a

----------------
IN: __printf_fp_buffer_1.isra.0
0x0003c08a:  d80a96e3          bnez                    s5,-628                 # 0x3be16

----------------
IN: __printf_fp_buffer_1.isra.0
0x0003be16:  000a069b          sext.w                  a3,s4
0x0003be1a:  00dd4863          bgt                     a3,s10,16               # 0x3be2a

----------------
IN: __printf_fp_buffer_1.isra.0
0x0003be1e:  033d5663          ble                     s3,s10,44               # 0x3be4a

----------------
IN: __printf_fp_buffer_1.isra.0
0x0003be4a:  fffcc983          lbu                     s3,-1(s9)
0x0003be4e:  ee843783          ld                      a5,-280(s0)
0x0003be52:  01379463          bne                     a5,s3,8                 # 0x3be5a

----------------
IN: __printf_fp_buffer_1.isra.0
0x0003be5a:  854a              mv                      a0,s2
0x0003be5c:  e8d43c23          sd                      a3,-360(s0)
0x0003be60:  d86ff0ef          jal                     ra,-2682                # 0x3b3e6

----------------
IN: __printf_fp_buffer_1.isra.0
0x0003be64:  03000613          addi                    a2,zero,48
0x0003be68:  e9843683          ld                      a3,-360(s0)
0x0003be6c:  28c50363          beq                     a0,a2,646               # 0x3c0f2

----------------
IN: __printf_fp_buffer_1.isra.0
0x0003c0f2:  f4043603          ld                      a2,-192(s0)
0x0003c0f6:  4585              addi                    a1,zero,1
0x0003c0f8:  26b60563          beq                     a2,a1,618               # 0x3c362

----------------
IN: __printf_fp_buffer_1.isra.0
0x0003c0fc:  f5043583          ld                      a1,-176(s0)
0x0003c100:  4305              addi                    t1,zero,1
0x0003c102:  d6059ce3          bnez                    a1,-648                 # 0x3be7a

----------------
IN: __printf_fp_buffer_1.isra.0
0x0003c106:  5e060763          beqz                    a2,1518                 # 0x3c6f4

----------------
IN: __printf_fp_buffer_1.isra.0
0x0003c10a:  f3843583          ld                      a1,-200(s0)
0x0003c10e:  00361813          slli                    a6,a2,3
0x0003c112:  95c2              add                     a1,a1,a6
0x0003c114:  a029              j                       10                      # 0x3c11e

----------------
IN: __printf_fp_buffer_1.isra.0
0x0003c11e:  ff85b783          ld                      a5,-8(a1)
0x0003c122:  dbf5              beqz                    a5,-12                  # 0x3c116

----------------
IN: __printf_fp_buffer_1.isra.0
0x0003c116:  167d              addi                    a2,a2,-1
0x0003c118:  15e1              addi                    a1,a1,-8
0x0003c11a:  5c060d63          beqz                    a2,1498                 # 0x3c6f4

----------------
IN: __printf_fp_buffer_1.isra.0
0x0003c6f4:  4301              mv                      t1,zero
0x0003c6f6:  f84ff06f          j                       -2172                   # 0x3be7a

----------------
IN: __printf_fp_buffer_1.isra.0
0x0003be7a:  00202673          frrm                    a2

----------------
IN: __printf_fp_buffer_1.isra.0
0x0003be7e:  03400893          addi                    a7,zero,52
0x0003be82:  0005059b          sext.w                  a1,a0
0x0003be86:  2601              sext.w                  a2,a2
0x0003be88:  4809              addi                    a6,zero,2
0x0003be8a:  f0c42e03          lw                      t3,-244(s0)
0x0003be8e:  00b8b5b3          sltu                    a1,a7,a1
0x0003be92:  49060563          beq                     a2,a6,1162              # 0x3c31c

----------------
IN: __printf_fp_buffer_1.isra.0
0x0003be96:  3ac84763          bgt                     a2,a6,942               # 0x3c244

----------------
IN: __printf_fp_buffer_1.isra.0
0x0003be9a:  48060563          beqz                    a2,1162                 # 0x3c324

----------------
IN: __printf_fp_buffer_1.isra.0
0x0003c324:  b8a8f0e3          bleu                    a0,a7,-1152             # 0x3bea4

----------------
IN: __printf_fp_buffer_1.isra.0
0x0003bea4:  f2c42503          lw                      a0,-212(s0)
0x0003bea8:  01a6dd63          ble                     s10,a3,26               # 0x3bec2

----------------
IN: __printf_fp_buffer_1.isra.0
0x0003bec2:  000d1f63          bnez                    s10,30                  # 0x3bee0

----------------
IN: __printf_fp_buffer_1.isra.0
0x0003bee0:  06600793          addi                    a5,zero,102
0x0003bee4:  06f50d63          beq                     a0,a5,122               # 0x3bf5e

----------------
IN: __printf_fp_buffer_1.isra.0
0x0003bf5e:  00cdd903          lhu                     s2,12(s11)
0x0003bf62:  ed043703          ld                      a4,-304(s0)
0x0003bf66:  87ca              mv                      a5,s2
0x0003bf68:  c709              beqz                    a4,10                   # 0x3bf72

----------------
IN: __printf_fp_buffer_1.isra.0
0x0003bf72:  f2042223          sw                      zero,-220(s0)
0x0003bf76:  4a01              mv                      s4,zero
0x0003bf78:  ef843703          ld                      a4,-264(s0)
0x0003bf7c:  f0c42683          lw                      a3,-244(s0)
0x0003bf80:  02097593          andi                    a1,s2,32
0x0003bf84:  40ec89b3          sub                     s3,s9,a4
0x0003bf88:  0009861b          sext.w                  a2,s3
0x0003bf8c:  18069e63          bnez                    a3,412                  # 0x3c128

----------------
IN: __printf_fp_buffer_1.isra.0
0x0003bf90:  00cda503          lw                      a0,12(s11)
0x0003bf94:  05057513          andi                    a0,a0,80
0x0003bf98:  10050e63          beqz                    a0,284                  # 0x3c0b4

----------------
IN: __printf_fp_buffer_1.isra.0
0x0003c0b4:  ea043703          ld                      a4,-352(s0)
0x0003c0b8:  40c7063b          subw                    a2,a4,a2
0x0003c0bc:  41460a3b          subw                    s4,a2,s4
0x0003c0c0:  ee0597e3          bnez                    a1,-274                 # 0x3bfae

----------------
IN: __printf_fp_buffer_1.isra.0
0x0003c0c4:  010da583          lw                      a1,16(s11)
0x0003c0c8:  03000793          addi                    a5,zero,48
0x0003c0cc:  eef580e3          beq                     a1,a5,-288              # 0x3bfac

----------------
IN: __printf_fp_buffer_1.isra.0
0x0003c0d0:  01404663          bgtz                    s4,12                   # 0x3c0dc

----------------
IN: __printf_fp_buffer_1.isra.0
0x0003c0d4:  e6bd              bnez                    a3,110                  # 0x3c142

----------------
IN: __printf_fp_buffer_1.isra.0
0x0003c0d6:  00cdd903          lhu                     s2,12(s11)
0x0003c0da:  bdc9              j                       -302                    # 0x3bfac

----------------
IN: __printf_fp_buffer_1.isra.0
0x0003bfac:  87ca              mv                      a5,s2
0x0003bfae:  04097693          andi                    a3,s2,64
0x0003bfb2:  38069763          bnez                    a3,910                  # 0x3c340

----------------
IN: __printf_fp_buffer_1.isra.0
0x0003bfb6:  01097913          andi                    s2,s2,16
0x0003bfba:  5e091363          bnez                    s2,1510                 # 0x3c5a0

----------------
IN: __printf_fp_buffer_1.isra.0
0x0003bfbe:  0207f793          andi                    a5,a5,32
0x0003bfc2:  e799              bnez                    a5,14                   # 0x3bfd0

----------------
IN: __printf_fp_buffer_1.isra.0
0x0003bfc4:  010da683          lw                      a3,16(s11)
0x0003bfc8:  03000793          addi                    a5,zero,48
0x0003bfcc:  50f68a63          beq                     a3,a5,1300              # 0x3c4e0

----------------
IN: __printf_fp_buffer_1.isra.0
0x0003bfd0:  f2442783          lw                      a5,-220(s0)
0x0003bfd4:  cfad              beqz                    a5,122                  # 0x3c04e

----------------
IN: __printf_fp_buffer_1.isra.0
0x0003c04e:  ef843583          ld                      a1,-264(s0)
0x0003c052:  864e              mv                      a2,s3
0x0003c054:  8526              mv                      a0,s1
0x0003c056:  afeff0ef          jal                     ra,-3330                # 0x3b354

----------------
IN: __printf_fp_buffer_1.isra.0
0x0003c05a:  00cdd783          lhu                     a5,12(s11)
0x0003c05e:  0207f793          andi                    a5,a5,32
0x0003c062:  cb99              beqz                    a5,22                   # 0x3c078

----------------
IN: __printf_fp_buffer_1.isra.0
0x0003c078:  eb043783          ld                      a5,-336(s0)
0x0003c07c:  9c0795e3          bnez                    a5,-1590                # 0x3ba46

----------------
IN: __printf_fp_buffer_1.isra.0
0x0003ba46:  00046797          auipc                   a5,70                   # 0x81a46
0x0003ba4a:  1ca7b783          ld                      a5,458(a5)
0x0003ba4e:  f8843703          ld                      a4,-120(s0)
0x0003ba52:  639c              ld                      a5,0(a5)
0x0003ba54:  8fb9              xor                     a5,a5,a4
0x0003ba56:  4701              mv                      a4,zero
0x0003ba58:  c399              beqz                    a5,6                    # 0x3ba5e

----------------
IN: __printf_fp_buffer_1.isra.0
0x0003ba5e:  e9040113          addi                    sp,s0,-368
0x0003ba62:  70b6              ld                      ra,360(sp)
0x0003ba64:  7416              ld                      s0,352(sp)
0x0003ba66:  64f6              ld                      s1,344(sp)
0x0003ba68:  6956              ld                      s2,336(sp)
0x0003ba6a:  69b6              ld                      s3,328(sp)
0x0003ba6c:  6a16              ld                      s4,320(sp)
0x0003ba6e:  7af2              ld                      s5,312(sp)
0x0003ba70:  7b52              ld                      s6,304(sp)
0x0003ba72:  7bb2              ld                      s7,296(sp)
0x0003ba74:  7c12              ld                      s8,288(sp)
0x0003ba76:  6cf2              ld                      s9,280(sp)
0x0003ba78:  6d52              ld                      s10,272(sp)
0x0003ba7a:  6db2              ld                      s11,264(sp)
0x0003ba7c:  6175              addi                    sp,sp,368
0x0003ba7e:  8082              ret                     

----------------
IN: __printf_fp_l_buffer
0x0003cea0:  b769              j                       -118                    # 0x3ce2a

----------------
IN: __printf_fp_l_buffer
0x0003ce2a:  fa843703          ld                      a4,-88(s0)
0x0003ce2e:  000b3783          ld                      a5,0(s6)
0x0003ce32:  8fb9              xor                     a5,a5,a4
0x0003ce34:  4701              mv                      a4,zero
0x0003ce36:  e7b5              bnez                    a5,108                  # 0x3cea2

----------------
IN: __printf_fp_l_buffer
0x0003ce38:  70ae              ld                      ra,232(sp)
0x0003ce3a:  740e              ld                      s0,224(sp)
0x0003ce3c:  64ee              ld                      s1,216(sp)
0x0003ce3e:  694e              ld                      s2,208(sp)
0x0003ce40:  69ae              ld                      s3,200(sp)
0x0003ce42:  6a0e              ld                      s4,192(sp)
0x0003ce44:  7aea              ld                      s5,184(sp)
0x0003ce46:  7b4a              ld                      s6,176(sp)
0x0003ce48:  7baa              ld                      s7,168(sp)
0x0003ce4a:  7c0a              ld                      s8,160(sp)
0x0003ce4c:  616d              addi                    sp,sp,240
0x0003ce4e:  8082              ret                     

----------------
IN: __printf_buffer
0x0001e836:  b4843b03          ld                      s6,-1208(s0)
0x0001e83a:  02500593          addi                    a1,zero,37
0x0001e83e:  2a85              addiw                   s5,s5,1
0x0001e840:  0b05              addi                    s6,s6,1
0x0001e842:  855a              mv                      a0,s6
0x0001e844:  fedf90ef          jal                     ra,-24596               # 0x18830

----------------
IN: __strchrnul
0x0001894a:  03079713          slli                    a4,a5,48
0x0001894e:  02074c63          bltz                    a4,56                   # 0x18986

----------------
IN: __strchrnul
0x00018986:  00160513          addi                    a0,a2,1
0x0001898a:  bf4d              j                       -78                     # 0x1893c

----------------
IN: __printf_buffer
0x0001e848:  8a2a              mv                      s4,a0
0x0001e84a:  41650633          sub                     a2,a0,s6
0x0001e84e:  85da              mv                      a1,s6
0x0001e850:  8526              mv                      a0,s1
0x0001e852:  b5443423          sd                      s4,-1208(s0)
0x0001e856:  2ff1c0ef          jal                     ra,117502               # 0x3b354

----------------
IN: __printf_buffer
0x0001e85a:  000a4783          lbu                     a5,0(s4)
0x0001e85e:  c781              beqz                    a5,8                    # 0x1e866

----------------
IN: __printf_buffer
0x0001e866:  55813a83          ld                      s5,1368(sp)
0x0001e86a:  54813b83          ld                      s7,1352(sp)
0x0001e86e:  54013c03          ld                      s8,1344(sp)
0x0001e872:  53813c83          ld                      s9,1336(sp)
0x0001e876:  53013d03          ld                      s10,1328(sp)
0x0001e87a:  52813d83          ld                      s11,1320(sp)
0x0001e87e:  bd35              j                       -452                    # 0x1e6ba

----------------
IN: _IO_new_file_xsputn
0x00022e8a:  60b8              ld                      a4,64(s1)
0x00022e8c:  8f09              sub                     a4,a4,a0
0x00022e8e:  02c76663          bgtu                    a2,a4,44                # 0x22eba

----------------
IN: _IO_new_file_xsputn
0x00022e92:  00c587b3          add                     a5,a1,a2
0x00022e96:  4629              addi                    a2,zero,10
0x00022e98:  fcf976e3          bleu                    a5,s2,-52               # 0x22e64

----------------
IN: _IO_new_file_xsputn
0x00022e9c:  fff7c683          lbu                     a3,-1(a5)
0x00022ea0:  17fd              addi                    a5,a5,-1
0x00022ea2:  fec69be3          bne                     a3,a2,-10               # 0x22e98

----------------
IN: _IO_new_file_xsputn
0x00022e98:  fcf976e3          bleu                    a5,s2,-52               # 0x22e64

----------------
IN: _IO_new_file_xsputn
0x00022e64:  4a81              mv                      s5,zero
0x00022e66:  89d2              mv                      s3,s4
0x00022e68:  0d476663          bgtu                    s4,a4,204               # 0x22f34

----------------
IN: _IO_new_file_xsputn
0x00022e6c:  864e              mv                      a2,s3
0x00022e6e:  85ca              mv                      a1,s2
0x00022e70:  f36f50ef          jal                     ra,-43210               # 0x185a6

----------------
IN: _IO_new_file_xsputn
0x00022e74:  954e              add                     a0,a0,s3
0x00022e76:  994e              add                     s2,s2,s3
0x00022e78:  f488              sd                      a0,40(s1)
0x00022e7a:  413a09b3          sub                     s3,s4,s3
0x00022e7e:  9ace              add                     s5,s5,s3
0x00022e80:  040a9063          bnez                    s5,64                   # 0x22ec0

----------------
IN: _IO_new_file_xsputn
0x00022e84:  413a0533          sub                     a0,s4,s3
0x00022e88:  a849              j                       146                     # 0x22f1a

----------------
IN: _IO_new_file_xsputn
0x00022f1a:  70e2              ld                      ra,56(sp)
0x00022f1c:  7442              ld                      s0,48(sp)
0x00022f1e:  74a2              ld                      s1,40(sp)
0x00022f20:  7902              ld                      s2,32(sp)
0x00022f22:  69e2              ld                      s3,24(sp)
0x00022f24:  6a42              ld                      s4,16(sp)
0x00022f26:  6aa2              ld                      s5,8(sp)
0x00022f28:  6121              addi                    sp,sp,64
0x00022f2a:  8082              ret                     

----------------
IN: printVector
0x00010678:  ff2415e3          bne                     s0,s2,-22               # 0x10662

----------------
IN: printVector
0x00010662:  00042787          flw                     fa5,0(s0)
0x00010666:  85a6              mv                      a1,s1
0x00010668:  4509              addi                    a0,zero,2
0x0001066a:  420787d3          fcvt.d.s                rne,fa5,fa5
0x0001066e:  0411              addi                    s0,s0,4
0x00010670:  e2078653          fmv.x.d                 a2,fa5
0x00010674:  7e2090ef          jal                     ra,38882                # 0x19e56

----------------
IN: printVector
0x0001067c:  6442              ld                      s0,16(sp)
0x0001067e:  60e2              ld                      ra,24(sp)
0x00010680:  64a2              ld                      s1,8(sp)
0x00010682:  6902              ld                      s2,0(sp)
0x00010684:  4529              addi                    a0,zero,10
0x00010686:  6105              addi                    sp,sp,32
0x00010688:  2330006f          j                       2610                    # 0x110ba

----------------
IN: putchar
0x000110ba:  7139              addi                    sp,sp,-64
0x000110bc:  f822              sd                      s0,48(sp)
0x000110be:  f426              sd                      s1,40(sp)
0x000110c0:  f04a              sd                      s2,32(sp)
0x000110c2:  e852              sd                      s4,16(sp)
0x000110c4:  fc06              sd                      ra,56(sp)
0x000110c6:  ec4e              sd                      s3,24(sp)
0x000110c8:  0080              addi                    s0,sp,64
0x000110ca:  00071a17          auipc                   s4,113                  # 0x820ca
0x000110ce:  b26a3a03          ld                      s4,-1242(s4)
0x000110d2:  000a3903          ld                      s2,0(s4)
0x000110d6:  84aa              mv                      s1,a0
0x000110d8:  00092783          lw                      a5,0(s2)
0x000110dc:  03079713          slli                    a4,a5,48
0x000110e0:  04075863          bgez                    a4,80                   # 0x11130

----------------
IN: putchar
0x00011130:  08893503          ld                      a0,136(s2)
0x00011134:  8a022703          lw                      a4,-1888(tp)
0x00011138:  8a020993          addi                    s3,tp,-1888
0x0001113c:  651c              ld                      a5,8(a0)
0x0001113e:  e311              bnez                    a4,4                    # 0x11142

----------------
IN: putchar
0x00011140:  c3ad              beqz                    a5,98                   # 0x111a2

----------------
IN: putchar
0x000111a2:  4785              addi                    a5,zero,1
0x000111a4:  c11c              sw                      a5,0(a0)
0x000111a6:  01353423          sd                      s3,8(a0)
0x000111aa:  bf2d              j                       -198                    # 0x110e4

----------------
IN: putchar
0x000110e4:  854a              mv                      a0,s2
0x000110e6:  751c              ld                      a5,40(a0)
0x000110e8:  7918              ld                      a4,48(a0)
0x000110ea:  0ff4f593          andi                    a1,s1,255
0x000110ee:  08e7f163          bleu                    a4,a5,130               # 0x11170

----------------
IN: putchar
0x00011170:  24f000ef          jal                     ra,2638                 # 0x11bbe

----------------
IN: __overflow
0x00011bbe:  7179              addi                    sp,sp,-48
0x00011bc0:  f022              sd                      s0,32(sp)
0x00011bc2:  f406              sd                      ra,40(sp)
0x00011bc4:  ec26              sd                      s1,24(sp)
0x00011bc6:  1800              addi                    s0,sp,48
0x00011bc8:  0c052783          lw                      a5,192(a0)
0x00011bcc:  e781              bnez                    a5,8                    # 0x11bd4

----------------
IN: __overflow
0x00011bd4:  6d64              ld                      s1,216(a0)
0x00011bd6:  6785              lui                     a5,1
0x00011bd8:  0006f717          auipc                   a4,111                  # 0x80bd8
0x00011bdc:  17070713          addi                    a4,a4,368
0x00011be0:  40e48733          sub                     a4,s1,a4
0x00011be4:  92f78793          addi                    a5,a5,-1745
0x00011be8:  00e7e863          bgtu                    a4,a5,16                # 0x11bf8

----------------
IN: __overflow
0x00011bec:  7402              ld                      s0,32(sp)
0x00011bee:  6c9c              ld                      a5,24(s1)
0x00011bf0:  70a2              ld                      ra,40(sp)
0x00011bf2:  64e2              ld                      s1,24(sp)
0x00011bf4:  6145              addi                    sp,sp,48
0x00011bf6:  8782              jr                      a5

----------------
IN: _IO_new_file_overflow
0x0002269e:  708c              ld                      a1,32(s1)
0x000226a0:  7490              ld                      a2,40(s1)
0x000226a2:  8526              mv                      a0,s1
0x000226a4:  8e0d              sub                     a2,a2,a1
0x000226a6:  e58ff0ef          jal                     ra,-2472                # 0x21cfe

----------------
IN: _IO_new_do_write
0x00021d04:  1101              addi                    sp,sp,-32
0x00021d06:  e822              sd                      s0,16(sp)
0x00021d08:  e426              sd                      s1,8(sp)
0x00021d0a:  ec06              sd                      ra,24(sp)
0x00021d0c:  1000              addi                    s0,sp,32
0x00021d0e:  84b2              mv                      s1,a2
0x00021d10:  9e9ff0ef          jal                     ra,-1560                # 0x216f8

----------------
IN: new_do_write
0x000216f8:  7139              addi                    sp,sp,-64
0x000216fa:  f822              sd                      s0,48(sp)
0x000216fc:  f426              sd                      s1,40(sp)
0x000216fe:  f04a              sd                      s2,32(sp)
0x00021700:  ec4e              sd                      s3,24(sp)
0x00021702:  e852              sd                      s4,16(sp)
0x00021704:  e456              sd                      s5,8(sp)
0x00021706:  fc06              sd                      ra,56(sp)
0x00021708:  0080              addi                    s0,sp,64
0x0002170a:  411c              lw                      a5,0(a0)
0x0002170c:  0d853903          ld                      s2,216(a0)
0x00021710:  84aa              mv                      s1,a0
0x00021712:  03379713          slli                    a4,a5,51
0x00021716:  8a2e              mv                      s4,a1
0x00021718:  8ab2              mv                      s5,a2
0x0002171a:  0005f997          auipc                   s3,95                   # 0x8071a
0x0002171e:  62e98993          addi                    s3,s3,1582
0x00021722:  06075263          bgez                    a4,100                  # 0x21786

----------------
IN: new_do_write
0x00021786:  6914              ld                      a3,16(a0)
0x00021788:  710c              ld                      a1,32(a0)
0x0002178a:  fab680e3          beq                     a3,a1,-96               # 0x2172a

----------------
IN: new_do_write
0x0002172a:  6785              lui                     a5,1
0x0002172c:  413909b3          sub                     s3,s2,s3
0x00021730:  92f78793          addi                    a5,a5,-1745
0x00021734:  0b37e763          bgtu                    s3,a5,174               # 0x217e2

----------------
IN: new_do_write
0x00021738:  07893783          ld                      a5,120(s2)
0x0002173c:  8656              mv                      a2,s5
0x0002173e:  85d2              mv                      a1,s4
0x00021740:  8526              mv                      a0,s1
0x00021742:  9782              jalr                    ra,a5,0

----------------
IN: _IO_file_write
0x00022db0:  7179              addi                    sp,sp,-48
0x00022db2:  f022              sd                      s0,32(sp)
0x00022db4:  e44e              sd                      s3,8(sp)
0x00022db6:  f406              sd                      ra,40(sp)
0x00022db8:  1800              addi                    s0,sp,48
0x00022dba:  89aa              mv                      s3,a0
0x00022dbc:  06c05963          blez                    a2,114                  # 0x22e2e

----------------
IN: _IO_file_write
0x00022dc0:  ec26              sd                      s1,24(sp)
0x00022dc2:  e84a              sd                      s2,16(sp)
0x00022dc4:  e052              sd                      s4,0(sp)
0x00022dc6:  892e              mv                      s2,a1
0x00022dc8:  8a32              mv                      s4,a2
0x00022dca:  84b2              mv                      s1,a2
0x00022dcc:  0749a783          lw                      a5,116(s3)
0x00022dd0:  0709a503          lw                      a0,112(s3)
0x00022dd4:  8626              mv                      a2,s1
0x00022dd6:  8b89              andi                    a5,a5,2
0x00022dd8:  85ca              mv                      a1,s2
0x00022dda:  eb95              bnez                    a5,52                   # 0x22e0e

----------------
IN: _IO_file_write
0x00022ddc:  537030ef          jal                     ra,15670                # 0x26b12

----------------
IN: __libc_write
0x00026b12:  7179              addi                    sp,sp,-48
0x00026b14:  f022              sd                      s0,32(sp)
0x00026b16:  f406              sd                      ra,40(sp)
0x00026b18:  ec26              sd                      s1,24(sp)
0x00026b1a:  1800              addi                    s0,sp,48
0x00026b1c:  8a022783          lw                      a5,-1888(tp)
0x00026b20:  ef99              bnez                    a5,30                   # 0x26b3e

----------------
IN: __libc_write
0x00026b22:  04000893          addi                    a7,zero,64
0x00026b26:  00000073          ecall                   

----------------
IN: __libc_write
0x00026b2a:  77fd              lui                     a5,-1
0x00026b2c:  84aa              mv                      s1,a0
0x00026b2e:  04a7e663          bgtu                    a0,a5,76                # 0x26b7a

----------------
IN: __libc_write
0x00026b32:  70a2              ld                      ra,40(sp)
0x00026b34:  7402              ld                      s0,32(sp)
0x00026b36:  8526              mv                      a0,s1
0x00026b38:  64e2              ld                      s1,24(sp)
0x00026b3a:  6145              addi                    sp,sp,48
0x00026b3c:  8082              ret                     

----------------
IN: _IO_file_write
0x00022de0:  02054b63          bltz                    a0,54                   # 0x22e16

----------------
IN: _IO_file_write
0x00022de4:  8c89              sub                     s1,s1,a0
0x00022de6:  992a              add                     s2,s2,a0
0x00022de8:  fe9042e3          bgtz                    s1,-28                  # 0x22dcc

----------------
IN: _IO_file_write
0x00022dec:  409a0533          sub                     a0,s4,s1
0x00022df0:  6942              ld                      s2,16(sp)
0x00022df2:  64e2              ld                      s1,24(sp)
0x00022df4:  6a02              ld                      s4,0(sp)
0x00022df6:  0909b783          ld                      a5,144(s3)
0x00022dfa:  0007c563          bltz                    a5,10                   # 0x22e04

----------------
IN: _IO_file_write
0x00022e04:  70a2              ld                      ra,40(sp)
0x00022e06:  7402              ld                      s0,32(sp)
0x00022e08:  69a2              ld                      s3,8(sp)
0x00022e0a:  6145              addi                    sp,sp,48
0x00022e0c:  8082              ret                     

----------------
IN: new_do_write
0x00021744:  0804d783          lhu                     a5,128(s1)
0x00021748:  892a              mv                      s2,a0
0x0002174a:  c391              beqz                    a5,4                    # 0x2174e

----------------
IN: new_do_write
0x0002174e:  7c9c              ld                      a5,56(s1)
0x00021750:  0c04a703          lw                      a4,192(s1)
0x00021754:  ec9c              sd                      a5,24(s1)
0x00021756:  e49c              sd                      a5,8(s1)
0x00021758:  e89c              sd                      a5,16(s1)
0x0002175a:  f49c              sd                      a5,40(s1)
0x0002175c:  f09c              sd                      a5,32(s1)
0x0002175e:  00e05e63          blez                    a4,28                   # 0x2177a

----------------
IN: new_do_write
0x0002177a:  4098              lw                      a4,0(s1)
0x0002177c:  20277713          andi                    a4,a4,514
0x00021780:  f375              bnez                    a4,-28                  # 0x21764

----------------
IN: new_do_write
0x00021764:  f89c              sd                      a5,48(s1)
0x00021766:  70e2              ld                      ra,56(sp)
0x00021768:  7442              ld                      s0,48(sp)
0x0002176a:  74a2              ld                      s1,40(sp)
0x0002176c:  69e2              ld                      s3,24(sp)
0x0002176e:  6a42              ld                      s4,16(sp)
0x00021770:  6aa2              ld                      s5,8(sp)
0x00021772:  854a              mv                      a0,s2
0x00021774:  7902              ld                      s2,32(sp)
0x00021776:  6121              addi                    sp,sp,64
0x00021778:  8082              ret                     

----------------
IN: _IO_new_do_write
0x00021d14:  60e2              ld                      ra,24(sp)
0x00021d16:  6442              ld                      s0,16(sp)
0x00021d18:  40a48533          sub                     a0,s1,a0
0x00021d1c:  00a03533          snez                    a0,a0
0x00021d20:  64a2              ld                      s1,8(sp)
0x00021d22:  40a00533          neg                     a0,a0
0x00021d26:  6105              addi                    sp,sp,32
0x00021d28:  8082              ret                     

----------------
IN: _IO_new_file_overflow
0x000226aa:  57fd              addi                    a5,zero,-1
0x000226ac:  f8f517e3          bne                     a0,a5,-114              # 0x2263a

----------------
IN: putchar
0x00011174:  85aa              mv                      a1,a0
0x00011176:  b759              j                       -122                    # 0x110fc

----------------
IN: putchar
0x000110fc:  00092783          lw                      a5,0(s2)
0x00011100:  03079713          slli                    a4,a5,48
0x00011104:  00074d63          bltz                    a4,26                   # 0x1111e

----------------
IN: putchar
0x00011108:  08893503          ld                      a0,136(s2)
0x0001110c:  8a022703          lw                      a4,-1888(tp)
0x00011110:  4154              lw                      a3,4(a0)
0x00011112:  e33d              bnez                    a4,102                  # 0x11178

----------------
IN: putchar
0x00011114:  e2bd              bnez                    a3,102                  # 0x1117a

----------------
IN: putchar
0x00011116:  00053423          sd                      zero,8(a0)
0x0001111a:  00052023          sw                      zero,0(a0)
0x0001111e:  70e2              ld                      ra,56(sp)
0x00011120:  7442              ld                      s0,48(sp)
0x00011122:  74a2              ld                      s1,40(sp)
0x00011124:  7902              ld                      s2,32(sp)
0x00011126:  69e2              ld                      s3,24(sp)
0x00011128:  6a42              ld                      s4,16(sp)
0x0001112a:  852e              mv                      a0,a1
0x0001112c:  6121              addi                    sp,sp,64
0x0001112e:  8082              ret                     

----------------
IN: main
0x000104e6:  00043797          auipc                   a5,67                   # 0x534e6
0x000104ea:  90e7a507          flw                     fa0,-1778(a5)
0x000104ee:  85a2              mv                      a1,s0
0x000104f0:  0028              addi                    a0,sp,8
0x000104f2:  13a000ef          jal                     ra,314                  # 0x1062c

----------------
IN: saxpy
0x0001062c:  01458793          addi                    a5,a1,20
0x00010630:  00052787          flw                     fa5,0(a0)
0x00010634:  0005a707          flw                     fa4,0(a1)
0x00010638:  0591              addi                    a1,a1,4
0x0001063a:  0511              addi                    a0,a0,4
0x0001063c:  70a7f7c3          fmadd.s                 dyn,fa5,fa5,fa0,fa4
0x00010640:  fef5ae27          fsw                     fa5,-4(a1)
0x00010644:  fef596e3          bne                     a1,a5,-20               # 0x10630

----------------
IN: saxpy
0x00010630:  00052787          flw                     fa5,0(a0)
0x00010634:  0005a707          flw                     fa4,0(a1)
0x00010638:  0591              addi                    a1,a1,4
0x0001063a:  0511              addi                    a0,a0,4
0x0001063c:  70a7f7c3          fmadd.s                 dyn,fa5,fa5,fa0,fa4
0x00010640:  fef5ae27          fsw                     fa5,-4(a1)
0x00010644:  fef596e3          bne                     a1,a5,-20               # 0x10630

----------------
IN: saxpy
0x00010648:  8082              ret                     

----------------
IN: main
0x000104f6:  00043597          auipc                   a1,67                   # 0x534f6
0x000104fa:  92258593          addi                    a1,a1,-1758
0x000104fe:  4509              addi                    a0,zero,2
0x00010500:  157090ef          jal                     ra,39254                # 0x19e56

----------------
IN: main
0x00010504:  8522              mv                      a0,s0
0x00010506:  144000ef          jal                     ra,324                  # 0x1064a

----------------
IN: __printf_fp_buffer_1.isra.0
0x0003b652:  013b87bb          addw                    a5,s7,s3
0x0003b656:  41f7d71b          sraiw                   a4,a5,31
0x0003b65a:  01a7571b          srliw                   a4,a4,26
0x0003b65e:  00f706bb          addw                    a3,a4,a5
0x0003b662:  03f7f793          andi                    a5,a5,63
0x0003b666:  4066da1b          sraiw                   s4,a3,6
0x0003b66a:  42079263          bnez                    a5,1060                 # 0x3ba8e

----------------
IN: __printf_fp_buffer_1.isra.0
0x0003ba8e:  0a0e              slli                    s4,s4,3
0x0003ba90:  03f6f693          andi                    a3,a3,63
0x0003ba94:  9e99              subw                    a3,a3,a4
0x0003ba96:  9552              add                     a0,a0,s4
0x0003ba98:  85ca              mv                      a1,s2
0x0003ba9a:  0dc090ef          jal                     ra,37084                # 0x44b76

----------------
IN: __printf_fp_buffer_1.isra.0
0x0003ba9e:  f3042b83          lw                      s7,-208(s0)
0x0003baa2:  f4043703          ld                      a4,-192(s0)
0x0003baa6:  017989bb          addw                    s3,s3,s7
0x0003baaa:  41f9d79b          sraiw                   a5,s3,31
0x0003baae:  01a7d79b          srliw                   a5,a5,26
0x0003bab2:  013787bb          addw                    a5,a5,s3
0x0003bab6:  4067da1b          sraiw                   s4,a5,6
0x0003baba:  9752              add                     a4,a4,s4
0x0003babc:  f4e43023          sd                      a4,-192(s0)
0x0003bac0:  bc0505e3          beqz                    a0,-1078                # 0x3b68a

----------------
IN: __printf_fp_buffer_1.isra.0
0x0003bac4:  00170693          addi                    a3,a4,1
0x0003bac8:  f4d43023          sd                      a3,-192(s0)
0x0003bacc:  f3843683          ld                      a3,-200(s0)
0x0003bad0:  070e              slli                    a4,a4,3
0x0003bad2:  9736              add                     a4,a4,a3
0x0003bad4:  e308              sd                      a0,0(a4)
0x0003bad6:  be55              j                       -1100                   # 0x3b68a

----------------
IN: __printf_fp_buffer_1.isra.0
0x0003b68a:  01405963          blez                    s4,18                   # 0x3b69c

----------------
IN: __printf_fp_buffer_1.isra.0
0x0003b69c:  f5043603          ld                      a2,-176(s0)
0x0003b6a0:  0002fb17          auipc                   s6,47                   # 0x6a6a0
0x0003b6a4:  9f8b0b13          addi                    s6,s6,-1544
0x0003b6a8:  4d01              mv                      s10,zero
0x0003b6aa:  4c31              addi                    s8,zero,12
0x0003b6ac:  4c81              mv                      s9,zero
0x0003b6ae:  0002f917          auipc                   s2,47                   # 0x6a6ae
0x0003b6b2:  8b290913          addi                    s2,s2,-1870
0x0003b6b6:  00032a97          auipc                   s5,50                   # 0x6d6b6
0x0003b6ba:  ffaa8a93          addi                    s5,s5,-6
0x0003b6be:  4a05              addi                    s4,zero,1
0x0003b6c0:  0002f997          auipc                   s3,47                   # 0x6a6c0
0x0003b6c4:  a0898993          addi                    s3,s3,-1528
0x0003b6c8:  ff8b2783          lw                      a5,-8(s6)
0x0003b6cc:  1b21              addi                    s6,s6,-24
0x0003b6ce:  019787bb          addw                    a5,a5,s9
0x0003b6d2:  37fd              addiw                   a5,a5,-1
0x0003b6d4:  04fbc163          bgt                     a5,s7,66                # 0x3b716

----------------
IN: __printf_fp_buffer_1.isra.0
0x0003b716:  3c7d              addiw                   s8,s8,-1
0x0003b718:  1f2b0e63          beq                     s6,s2,508               # 0x3b914

----------------
IN: __printf_fp_buffer_1.isra.0
0x0003b71c:  f3042b83          lw                      s7,-208(s0)
0x0003b720:  b765              j                       -88                     # 0x3b6c8

----------------
IN: __printf_fp_buffer_1.isra.0
0x0003b6c8:  ff8b2783          lw                      a5,-8(s6)
0x0003b6cc:  1b21              addi                    s6,s6,-24
0x0003b6ce:  019787bb          addw                    a5,a5,s9
0x0003b6d2:  37fd              addiw                   a5,a5,-1
0x0003b6d4:  04fbc163          bgt                     a5,s7,66                # 0x3b716

----------------
IN: __printf_fp_buffer_1.isra.0
0x0003b6d8:  f5843503          ld                      a0,-168(s0)
0x0003b6dc:  62061e63          bnez                    a2,1596                 # 0x3bd18

----------------
IN: __printf_fp_buffer_1.isra.0
0x0003b6e0:  00cdd783          lhu                     a5,12(s11)
0x0003b6e4:  8b85              andi                    a5,a5,1
0x0003b6e6:  64079f63          bnez                    a5,1630                 # 0x3bd44

----------------
IN: __printf_fp_buffer_1.isra.0
0x0003b6ea:  000b3583          ld                      a1,0(s6)
0x0003b6ee:  008b3783          ld                      a5,8(s6)
0x0003b6f2:  058e              slli                    a1,a1,3
0x0003b6f4:  00379613          slli                    a2,a5,3
0x0003b6f8:  95ce              add                     a1,a1,s3
0x0003b6fa:  f6f43023          sd                      a5,-160(s0)
0x0003b6fe:  ea9dc0ef          jal                     ra,-143704              # 0x185a6

----------------
IN: _wordcopy_fwd_aligned
0x00018b5c:  0005b803          ld                      a6,0(a1)
0x00018b60:  86aa              mv                      a3,a0
0x00018b62:  fd058593          addi                    a1,a1,-48
0x00018b66:  fc850793          addi                    a5,a0,-56
0x00018b6a:  0619              addi                    a2,a2,6
0x00018b6c:  bf55              j                       -76                     # 0x18b20

----------------
IN: _wordcopy_fwd_aligned
0x00018b20:  7d98              ld                      a4,56(a1)
0x00018b22:  04078793          addi                    a5,a5,64
0x00018b26:  0106b023          sd                      a6,0(a3)
0x00018b2a:  1661              addi                    a2,a2,-8
0x00018b2c:  853e              mv                      a0,a5
0x00018b2e:  04058593          addi                    a1,a1,64
0x00018b32:  ea11              bnez                    a2,20                   # 0x18b46

----------------
IN: __printf_fp_buffer_1.isra.0
0x0003b702:  f6043783          ld                      a5,-160(s0)
0x0003b706:  f4043703          ld                      a4,-192(s0)
0x0003b70a:  18e7cb63          bgt                     a4,a5,406               # 0x3b8a0

----------------
IN: __printf_fp_buffer_1.isra.0
0x0003b70e:  16f70e63          beq                     a4,a5,380               # 0x3b88a

----------------
IN: __printf_fp_buffer_1.isra.0
0x0003b88a:  f5843583          ld                      a1,-168(s0)
0x0003b88e:  f3843503          ld                      a0,-200(s0)
0x0003b892:  863e              mv                      a2,a5
0x0003b894:  4b9080ef          jal                     ra,36024                # 0x4454c

----------------
IN: __mpn_cmp
0x0004454c:  1141              addi                    sp,sp,-16
0x0004454e:  e422              sd                      s0,8(sp)
0x00044550:  0800              addi                    s0,sp,16
0x00044552:  fff60793          addi                    a5,a2,-1
0x00044556:  0207c963          bltz                    a5,50                   # 0x44588

----------------
IN: __mpn_cmp
0x0004455a:  060e              slli                    a2,a2,3
0x0004455c:  9532              add                     a0,a0,a2
0x0004455e:  95b2              add                     a1,a1,a2
0x00044560:  567d              addi                    a2,zero,-1
0x00044562:  a021              j                       8                       # 0x4456a

----------------
IN: __mpn_cmp
0x0004456a:  ff853683          ld                      a3,-8(a0)
0x0004456e:  ff85b703          ld                      a4,-8(a1)
0x00044572:  17fd              addi                    a5,a5,-1
0x00044574:  1561              addi                    a0,a0,-8
0x00044576:  fee687e3          beq                     a3,a4,-18               # 0x44564

----------------
IN: __mpn_cmp
0x0004457a:  557d              addi                    a0,zero,-1
0x0004457c:  00d77763          bleu                    a3,a4,14                # 0x4458a

----------------
IN: __mpn_cmp
0x0004458a:  6422              ld                      s0,8(sp)
0x0004458c:  0141              addi                    sp,sp,16
0x0004458e:  8082              ret                     

----------------
IN: __printf_fp_buffer_1.isra.0
0x0003b898:  e6054de3          bltz                    a0,-390                 # 0x3b712

----------------
IN: __printf_fp_buffer_1.isra.0
0x0003b712:  f5043603          ld                      a2,-176(s0)
0x0003b716:  3c7d              addiw                   s8,s8,-1
0x0003b718:  1f2b0e63          beq                     s6,s2,508               # 0x3b914

----------------
IN: __printf_fp_buffer_1.isra.0
0x0003b914:  f3a42823          sw                      s10,-208(s0)
0x0003b918:  eec054e3          blez                    a2,-280                 # 0x3b800

----------------
IN: __printf_fp_buffer_1.isra.0
0x0003b800:  00046797          auipc                   a5,70                   # 0x81800
0x0003b804:  5107b783          ld                      a5,1296(a5)
0x0003b808:  008da703          lw                      a4,8(s11)
0x0003b80c:  004da583          lw                      a1,4(s11)
0x0003b810:  9792              add                     a5,a5,tp
0x0003b812:  639c              ld                      a5,0(a5)
0x0003b814:  00271613          slli                    a2,a4,2
0x0003b818:  06500693          addi                    a3,zero,101
0x0003b81c:  97b2              add                     a5,a5,a2
0x0003b81e:  0007c783          lbu                     a5,0(a5)
0x0003b822:  000da603          lw                      a2,0(s11)
0x0003b826:  eab43023          sd                      a1,-352(s0)
0x0003b82a:  eaf43423          sd                      a5,-344(s0)
0x0003b82e:  eec43023          sd                      a2,-288(s0)
0x0003b832:  54d78863          beq                     a5,a3,1360              # 0x3bd82

----------------
IN: __mpn_cmp
0x00044564:  15e1              addi                    a1,a1,-8
0x00044566:  02c78163          beq                     a5,a2,34                # 0x44588

----------------
IN: __mpn_cmp
0x00044588:  4501              mv                      a0,zero
0x0004458a:  6422              ld                      s0,8(sp)
0x0004458c:  0141              addi                    sp,sp,16
0x0004458e:  8082              ret                     

----------------
IN: __printf_fp_buffer_1.isra.0
0x0003b89c:  f6043783          ld                      a5,-160(s0)
0x0003b8a0:  f5843583          ld                      a1,-168(s0)
0x0003b8a4:  f4843503          ld                      a0,-184(s0)
0x0003b8a8:  00379613          slli                    a2,a5,3
0x0003b8ac:  f4f43823          sd                      a5,-176(s0)
0x0003b8b0:  cf7dc0ef          jal                     ra,-144138              # 0x185a6

----------------
IN: __printf_fp_buffer_1.isra.0
0x0003b8b4:  f5043603          ld                      a2,-176(s0)
0x0003b8b8:  f4843783          ld                      a5,-184(s0)
0x0003b8bc:  00361713          slli                    a4,a2,3
0x0003b8c0:  97ba              add                     a5,a5,a4
0x0003b8c2:  ff87b703          ld                      a4,-8(a5)
0x0003b8c6:  03875793          srli                    a5,a4,56
0x0003b8ca:  c399              beqz                    a5,6                    # 0x3b8d0

----------------
IN: __printf_fp_buffer_1.isra.0
0x0003b8d0:  03800793          addi                    a5,zero,56
0x0003b8d4:  a809              j                       18                      # 0x3b8e6

----------------
IN: __printf_fp_buffer_1.isra.0
0x0003b8e6:  17e1              addi                    a5,a5,-8
0x0003b8e8:  f7fd              bnez                    a5,-18                  # 0x3b8d6

----------------
IN: __printf_fp_buffer_1.isra.0
0x0003b8d6:  00f756b3          srl                     a3,a4,a5
0x0003b8da:  0ff6f593          andi                    a1,a3,255
0x0003b8de:  0007851b          sext.w                  a0,a5
0x0003b8e2:  26059de3          bnez                    a1,2682                 # 0x3c35c

----------------
IN: __printf_fp_buffer_1.isra.0
0x0003b8ea:  4501              mv                      a0,zero
0x0003b8ec:  9756              add                     a4,a4,s5
0x0003b8ee:  00074703          lbu                     a4,0(a4)
0x0003b8f2:  00661c9b          slliw                   s9,a2,6
0x0003b8f6:  018a17bb          sllw                    a5,s4,s8
0x0003b8fa:  f3fc8c9b          addiw                   s9,s9,-193
0x0003b8fe:  00ac8cbb          addw                    s9,s9,a0
0x0003b902:  00fd67b3          or                      a5,s10,a5
0x0003b906:  00ec8cbb          addw                    s9,s9,a4
0x0003b90a:  00078d1b          sext.w                  s10,a5
0x0003b90e:  3c7d              addiw                   s8,s8,-1
0x0003b910:  e12b16e3          bne                     s6,s2,-500              # 0x3b71c

----------------
IN: __printf_fp_buffer_1.isra.0
0x0003b91c:  f4843503          ld                      a0,-184(s0)
0x0003b920:  00053e03          ld                      t3,0(a0)
0x0003b924:  000e0463          beqz                    t3,8                    # 0x3b92c

----------------
IN: __printf_fp_buffer_1.isra.0
0x0003b92c:  f3843803          ld                      a6,-200(s0)
0x0003b930:  85aa              mv                      a1,a0
0x0003b932:  4901              mv                      s2,zero
0x0003b934:  4781              mv                      a5,zero
0x0003b936:  a039              j                       14                      # 0x3b944

----------------
IN: __printf_fp_buffer_1.isra.0
0x0003b944:  01280733          add                     a4,a6,s2
0x0003b948:  6318              ld                      a4,0(a4)
0x0003b94a:  0007869b          sext.w                  a3,a5
0x0003b94e:  d76d              beqz                    a4,-22                  # 0x3b938

----------------
IN: __printf_fp_buffer_1.isra.0
0x0003b938:  6598              ld                      a4,8(a1)
0x0003b93a:  0785              addi                    a5,a5,1
0x0003b93c:  05a1              addi                    a1,a1,8
0x0003b93e:  0921              addi                    s2,s2,8
0x0003b940:  3c071ae3          bnez                    a4,3028                 # 0x3c514

----------------
IN: __printf_fp_buffer_1.isra.0
0x0003c514:  0016899b          addiw                   s3,a3,1
0x0003c518:  8e3a              mv                      t3,a4
0x0003c51a:  c38ff06f          j                       -3016                   # 0x3b952

----------------
IN: __printf_fp_buffer_1.isra.0
0x0003b952:  00361713          slli                    a4,a2,3
0x0003b956:  972a              add                     a4,a4,a0
0x0003b958:  ff873683          ld                      a3,-8(a4)
0x0003b95c:  0386d713          srli                    a4,a3,56
0x0003b960:  c319              beqz                    a4,6                    # 0x3b966

----------------
IN: __printf_fp_buffer_1.isra.0
0x0003b966:  03800713          addi                    a4,zero,56
0x0003b96a:  a809              j                       18                      # 0x3b97c

----------------
IN: __printf_fp_buffer_1.isra.0
0x0003b97c:  1761              addi                    a4,a4,-8
0x0003b97e:  f77d              bnez                    a4,-18                  # 0x3b96c

----------------
IN: __printf_fp_buffer_1.isra.0
0x0003b96c:  00e6d833          srl                     a6,a3,a4
0x0003b970:  0ff87893          andi                    a7,a6,255
0x0003b974:  0007031b          sext.w                  t1,a4
0x0003b978:  6c089ae3          bnez                    a7,3796                 # 0x3c84c

----------------
IN: __printf_fp_buffer_1.isra.0
0x0003b980:  4301              mv                      t1,zero
0x0003b982:  00032817          auipc                   a6,50                   # 0x6d982
0x0003b986:  d2e80813          addi                    a6,a6,-722
0x0003b98a:  96c2              add                     a3,a3,a6
0x0003b98c:  0006c703          lbu                     a4,0(a3)
0x0003b990:  04000a93          addi                    s5,zero,64
0x0003b994:  00670a3b          addw                    s4,a4,t1
0x0003b998:  414a8abb          subw                    s5,s5,s4
0x0003b99c:  1e0a9ce3          bnez                    s5,2552                 # 0x3c394

----------------
IN: __printf_fp_buffer_1.isra.0
0x0003c394:  f3843783          ld                      a5,-200(s0)
0x0003c398:  97ca              add                     a5,a5,s2
0x0003c39a:  0007b303          ld                      t1,0(a5)
0x0003c39e:  220e0f63          beqz                    t3,574                  # 0x3c5dc

----------------
IN: __printf_fp_buffer_1.isra.0
0x0003c3a2:  41c00733          neg                     a4,t3
0x0003c3a6:  01c77733          and                     a4,a4,t3
0x0003c3aa:  03875793          srli                    a5,a4,56
0x0003c3ae:  7e079063          bnez                    a5,2016                 # 0x3cb8e

----------------
IN: __printf_fp_buffer_1.isra.0
0x0003c3b2:  03800793          addi                    a5,zero,56
0x0003c3b6:  a039              j                       14                      # 0x3c3c4

----------------
IN: __printf_fp_buffer_1.isra.0
0x0003c3c4:  17e1              addi                    a5,a5,-8
0x0003c3c6:  fbed              bnez                    a5,-14                  # 0x3c3b8

----------------
IN: __printf_fp_buffer_1.isra.0
0x0003c3b8:  00f756b3          srl                     a3,a4,a5
0x0003c3bc:  0ff6f893          andi                    a7,a3,255
0x0003c3c0:  66089463          bnez                    a7,1640                 # 0x3ca28

----------------
IN: __printf_fp_buffer_1.isra.0
0x0003c3c8:  04000793          addi                    a5,zero,64
0x0003c3cc:  9742              add                     a4,a4,a6
0x0003c3ce:  00074703          lbu                     a4,0(a4)
0x0003c3d2:  9f1d              subw                    a4,a4,a5
0x0003c3d4:  03f70e1b          addiw                   t3,a4,63
0x0003c3d8:  8772              mv                      a4,t3
0x0003c3da:  87f2              mv                      a5,t3
0x0003c3dc:  04030363          beqz                    t1,70                   # 0x3c422

----------------
IN: __printf_fp_buffer_1.isra.0
0x0003c3e0:  406006b3          neg                     a3,t1
0x0003c3e4:  0066f6b3          and                     a3,a3,t1
0x0003c3e8:  0386d793          srli                    a5,a3,56
0x0003c3ec:  7a079b63          bnez                    a5,1974                 # 0x3cba2

----------------
IN: __printf_fp_buffer_1.isra.0
0x0003c3f0:  03800793          addi                    a5,zero,56
0x0003c3f4:  a039              j                       14                      # 0x3c402

----------------
IN: __printf_fp_buffer_1.isra.0
0x0003c402:  17e1              addi                    a5,a5,-8
0x0003c404:  fbed              bnez                    a5,-14                  # 0x3c3f6

----------------
IN: __printf_fp_buffer_1.isra.0
0x0003c3f6:  00f6d8b3          srl                     a7,a3,a5
0x0003c3fa:  0ff8f313          andi                    t1,a7,255
0x0003c3fe:  74031163          bnez                    t1,1858                 # 0x3cb40

----------------
IN: __printf_fp_buffer_1.isra.0
0x0003c406:  04000313          addi                    t1,zero,64
0x0003c40a:  96c2              add                     a3,a3,a6
0x0003c40c:  0006c783          lbu                     a5,0(a3)
0x0003c410:  406787bb          subw                    a5,a5,t1
0x0003c414:  03f7869b          addiw                   a3,a5,63
0x0003c418:  87b6              mv                      a5,a3
0x0003c41a:  00de5463          ble                     a3,t3,8                 # 0x3c422

----------------
IN: __printf_fp_buffer_1.isra.0
0x0003c422:  3c099363          bnez                    s3,966                  # 0x3c7e8

----------------
IN: __printf_fp_buffer_1.isra.0
0x0003c7e8:  c547d1e3          ble                     s4,a5,-958              # 0x3c42a

----------------
IN: __printf_fp_buffer_1.isra.0
0x0003c7ec:  fff98a9b          addiw                   s5,s3,-1
0x0003c7f0:  1961              addi                    s2,s2,-8
0x0003c7f2:  41560633          sub                     a2,a2,s5
0x0003c7f6:  86d2              mv                      a3,s4
0x0003c7f8:  012505b3          add                     a1,a0,s2
0x0003c7fc:  5db080ef          jal                     ra,36314                # 0x455d6

----------------
IN: __mpn_rshift
0x000455d6:  ca29              beqz                    a2,82                   # 0x45628

----------------
IN: __mpn_rshift
0x000455d8:  caa1              beqz                    a3,80                   # 0x45628

----------------
IN: __mpn_rshift
0x000455da:  0005b803          ld                      a6,0(a1)
0x000455de:  04000e13          addi                    t3,zero,64
0x000455e2:  40de0e3b          subw                    t3,t3,a3
0x000455e6:  4785              addi                    a5,zero,1
0x000455e8:  8eaa              mv                      t4,a0
0x000455ea:  01c81533          sll                     a0,a6,t3
0x000455ee:  02c7d863          ble                     a2,a5,48                # 0x4561e

----------------
IN: __mpn_rshift
0x000455f2:  060e              slli                    a2,a2,3
0x000455f4:  00858713          addi                    a4,a1,8
0x000455f8:  88f6              mv                      a7,t4
0x000455fa:  95b2              add                     a1,a1,a2
0x000455fc:  87c2              mv                      a5,a6
0x000455fe:  00073803          ld                      a6,0(a4)
0x00045602:  00d7d7b3          srl                     a5,a5,a3
0x00045606:  0721              addi                    a4,a4,8
0x00045608:  01c81333          sll                     t1,a6,t3
0x0004560c:  0067e7b3          or                      a5,a5,t1
0x00045610:  00f8b023          sd                      a5,0(a7)
0x00045614:  08a1              addi                    a7,a7,8
0x00045616:  feb713e3          bne                     a4,a1,-26               # 0x455fc

----------------
IN: __mpn_rshift
0x0004561a:  1661              addi                    a2,a2,-8
0x0004561c:  9eb2              add                     t4,t4,a2
0x0004561e:  00d85833          srl                     a6,a6,a3
0x00045622:  010eb023          sd                      a6,0(t4)
0x00045626:  8082              ret                     

----------------
IN: __printf_fp_buffer_1.isra.0
0x0003c800:  f5043783          ld                      a5,-176(s0)
0x0003c804:  f3843503          ld                      a0,-200(s0)
0x0003c808:  f4043603          ld                      a2,-192(s0)
0x0003c80c:  413787b3          sub                     a5,a5,s3
0x0003c810:  86d2              mv                      a3,s4
0x0003c812:  41560633          sub                     a2,a2,s5
0x0003c816:  012505b3          add                     a1,a0,s2
0x0003c81a:  f4f43823          sd                      a5,-176(s0)
0x0003c81e:  5b9080ef          jal                     ra,36280                # 0x455d6

----------------
IN: __printf_fp_buffer_1.isra.0
0x0003c822:  f4043703          ld                      a4,-192(s0)
0x0003c826:  f3843783          ld                      a5,-200(s0)
0x0003c82a:  41570ab3          sub                     s5,a4,s5
0x0003c82e:  003a9693          slli                    a3,s5,3
0x0003c832:  97b6              add                     a5,a5,a3
0x0003c834:  ff87b783          ld                      a5,-8(a5)
0x0003c838:  e399              bnez                    a5,6                    # 0x3c83e

----------------
IN: __printf_fp_buffer_1.isra.0
0x0003c83a:  41370ab3          sub                     s5,a4,s3
0x0003c83e:  f5543023          sd                      s5,-192(s0)
0x0003c842:  fbffe06f          j                       -4162                   # 0x3b800

----------------
IN: hack_digit
0x0003b40a:  02f65863          ble                     a5,a2,48                # 0x3b43a

----------------
IN: hack_digit
0x0003b43a:  7098              ld                      a4,32(s1)
0x0003b43c:  7888              ld                      a0,48(s1)
0x0003b43e:  86b2              mv                      a3,a2
0x0003b440:  862e              mv                      a2,a1
0x0003b442:  4581              mv                      a1,zero
0x0003b444:  14c090ef          jal                     ra,37196                # 0x44590

----------------
IN: __mpn_divrem
0x00044590:  7155              addi                    sp,sp,-208
0x00044592:  e1a2              sd                      s0,192(sp)
0x00044594:  fd26              sd                      s1,184(sp)
0x00044596:  f54e              sd                      s3,168(sp)
0x00044598:  e55e              sd                      s7,136(sp)
0x0004459a:  e586              sd                      ra,200(sp)
0x0004459c:  f94a              sd                      s2,176(sp)
0x0004459e:  0980              addi                    s0,sp,208
0x000445a0:  8bbe              mv                      s7,a5
0x000445a2:  4785              addi                    a5,zero,1
0x000445a4:  84aa              mv                      s1,a0
0x000445a6:  8eae              mv                      t4,a1
0x000445a8:  89b6              mv                      s3,a3
0x000445aa:  32fb8b63          beq                     s7,a5,822               # 0x448e0

----------------
IN: __mpn_divrem
0x000448e0:  00369813          slli                    a6,a3,3
0x000448e4:  9832              add                     a6,a6,a2
0x000448e6:  630c              ld                      a1,0(a4)
0x000448e8:  ff883783          ld                      a5,-8(a6)
0x000448ec:  4901              mv                      s2,zero
0x000448ee:  14b7f163          bleu                    a1,a5,322               # 0x44a30

----------------
IN: __mpn_divrem
0x00044a30:  8f8d              sub                     a5,a5,a1
0x00044a32:  4905              addi                    s2,zero,1
0x00044a34:  bd7d              j                       -322                    # 0x448f2

----------------
IN: __mpn_divrem
0x000448f2:  4705              addi                    a4,zero,1
0x000448f4:  0b375663          ble                     s3,a4,172               # 0x449a0

----------------
IN: __mpn_divrem
0x000449a0:  09d05663          blez                    t4,140                  # 0x44a2c

----------------
IN: __mpn_divrem
0x00044a2c:  e21c              sd                      a5,0(a2)
0x00044a2e:  b331              j                       -756                    # 0x4473a

----------------
IN: __mpn_divrem
0x0004473a:  60ae              ld                      ra,200(sp)
0x0004473c:  640e              ld                      s0,192(sp)
0x0004473e:  74ea              ld                      s1,184(sp)
0x00044740:  79aa              ld                      s3,168(sp)
0x00044742:  6baa              ld                      s7,136(sp)
0x00044744:  854a              mv                      a0,s2
0x00044746:  794a              ld                      s2,176(sp)
0x00044748:  6169              addi                    sp,sp,208
0x0004474a:  8082              ret                     

----------------
IN: hack_digit
0x0003b448:  6c9c              ld                      a5,24(s1)
0x0003b44a:  7494              ld                      a3,40(s1)
0x0003b44c:  7898              ld                      a4,48(s1)
0x0003b44e:  8f95              sub                     a5,a5,a3
0x0003b450:  078e              slli                    a5,a5,3
0x0003b452:  97ba              add                     a5,a5,a4
0x0003b454:  e388              sd                      a0,0(a5)
0x0003b456:  749c              ld                      a5,40(s1)
0x0003b458:  00073903          ld                      s2,0(a4)
0x0003b45c:  ec9c              sd                      a5,24(s1)
0x0003b45e:  cbad              beqz                    a5,114                  # 0x3b4d0

----------------
IN: hack_digit
0x0003b460:  688c              ld                      a1,16(s1)
0x0003b462:  00379713          slli                    a4,a5,3
0x0003b466:  972e              add                     a4,a4,a1
0x0003b468:  a019              j                       6                       # 0x3b46e

----------------
IN: hack_digit
0x0003b46e:  ff873683          ld                      a3,-8(a4)
0x0003b472:  17fd              addi                    a5,a5,-1
0x0003b474:  1761              addi                    a4,a4,-8
0x0003b476:  daf5              beqz                    a3,-12                  # 0x3b46a

----------------
IN: hack_digit
0x0003b46a:  ec9c              sd                      a5,24(s1)
0x0003b46c:  c3b5              beqz                    a5,100                  # 0x3b4d0

----------------
IN: hack_digit
0x0003b4d0:  60e2              ld                      ra,24(sp)
0x0003b4d2:  6442              ld                      s0,16(sp)
0x0003b4d4:  0309091b          addiw                   s2,s2,48
0x0003b4d8:  4785              addi                    a5,zero,1
0x0003b4da:  ec9c              sd                      a5,24(s1)
0x0003b4dc:  0ff97913          andi                    s2,s2,255
0x0003b4e0:  64a2              ld                      s1,8(sp)
0x0003b4e2:  854a              mv                      a0,s2
0x0003b4e4:  6902              ld                      s2,0(sp)
0x0003b4e6:  6105              addi                    sp,sp,32
0x0003b4e8:  8082              ret                     

----------------
IN: __printf_fp_buffer_1.isra.0
0x0003c486:  854a              mv                      a0,s2
0x0003c488:  0a85              addi                    s5,s5,1
0x0003c48a:  f5dfe0ef          jal                     ra,-4260                # 0x3b3e6

----------------
IN: __printf_fp_buffer_1.isra.0
0x0003c362:  f3843583          ld                      a1,-200(s0)
0x0003c366:  4301              mv                      t1,zero
0x0003c368:  6190              ld                      a2,0(a1)
0x0003c36a:  b00608e3          beqz                    a2,-1264                # 0x3be7a

----------------
IN: __mpn_cmp
0x00044580:  6422              ld                      s0,8(sp)
0x00044582:  4505              addi                    a0,zero,1
0x00044584:  0141              addi                    sp,sp,16
0x00044586:  8082              ret                     

----------------
IN: hack_digit
0x0003b478:  0309091b          addiw                   s2,s2,48
0x0003b47c:  6c90              ld                      a2,24(s1)
0x0003b47e:  0ff97913          andi                    s2,s2,255
0x0003b482:  bf41              j                       -112                    # 0x3b412

----------------
IN: hack_digit
0x0003b412:  46a9              addi                    a3,zero,10
0x0003b414:  852e              mv                      a0,a1
0x0003b416:  213090ef          jal                     ra,39442                # 0x44e28

----------------
IN: hack_digit
0x0003b41a:  c909              beqz                    a0,18                   # 0x3b42c

----------------
IN: hack_digit
0x0003b42c:  60e2              ld                      ra,24(sp)
0x0003b42e:  6442              ld                      s0,16(sp)
0x0003b430:  64a2              ld                      s1,8(sp)
0x0003b432:  854a              mv                      a0,s2
0x0003b434:  6902              ld                      s2,0(sp)
0x0003b436:  6105              addi                    sp,sp,32
0x0003b438:  8082              ret                     

----------------
IN: main
0x0001050a:  7762              ld                      a4,56(sp)
0x0001050c:  609c              ld                      a5,0(s1)
0x0001050e:  8fb9              xor                     a5,a5,a4
0x00010510:  4701              mv                      a4,zero
0x00010512:  e799              bnez                    a5,14                   # 0x10520

----------------
IN: main
0x00010514:  60e6              ld                      ra,88(sp)
0x00010516:  6446              ld                      s0,80(sp)
0x00010518:  64a6              ld                      s1,72(sp)
0x0001051a:  4501              mv                      a0,zero
0x0001051c:  6125              addi                    sp,sp,96
0x0001051e:  8082              ret                     

----------------
IN: __libc_start_call_main
0x0001071c:  187000ef          jal                     ra,2438                 # 0x110a2

----------------
IN: exit
0x000110a2:  1141              addi                    sp,sp,-16
0x000110a4:  e022              sd                      s0,0(sp)
0x000110a6:  e406              sd                      ra,8(sp)
0x000110a8:  0800              addi                    s0,sp,16
0x000110aa:  4685              addi                    a3,zero,1
0x000110ac:  4605              addi                    a2,zero,1
0x000110ae:  00071597          auipc                   a1,113                  # 0x820ae
0x000110b2:  f5258593          addi                    a1,a1,-174
0x000110b6:  e09ff0ef          jal                     ra,-504                 # 0x10ebe

----------------
IN: __run_exit_handlers
0x00010ebe:  7175              addi                    sp,sp,-144
0x00010ec0:  e122              sd                      s0,128(sp)
0x00010ec2:  f86a              sd                      s10,48(sp)
0x00010ec4:  0900              addi                    s0,sp,144
0x00010ec6:  e506              sd                      ra,136(sp)
0x00010ec8:  fca6              sd                      s1,120(sp)
0x00010eca:  f8ca              sd                      s2,112(sp)
0x00010ecc:  f4ce              sd                      s3,104(sp)
0x00010ece:  f0d2              sd                      s4,96(sp)
0x00010ed0:  ecd6              sd                      s5,88(sp)
0x00010ed2:  e8da              sd                      s6,80(sp)
0x00010ed4:  e4de              sd                      s7,72(sp)
0x00010ed6:  e0e2              sd                      s8,64(sp)
0x00010ed8:  fc66              sd                      s9,56(sp)
0x00010eda:  f46e              sd                      s11,40(sp)
0x00010edc:  f8b43423          sd                      a1,-120(s0)
0x00010ee0:  f6c43823          sd                      a2,-144(s0)
0x00010ee4:  8d2a              mv                      s10,a0
0x00010ee6:  c699              beqz                    a3,14                   # 0x10ef4

----------------
IN: __run_exit_handlers
0x00010ee8:  00071797          auipc                   a5,113                  # 0x81ee8
0x00010eec:  0b87b783          ld                      a5,184(a5)
0x00010ef0:  c391              beqz                    a5,4                    # 0x10ef4

----------------
IN: __run_exit_handlers
0x00010ef4:  00071497          auipc                   s1,113                  # 0x81ef4
0x00010ef8:  dfc4b483          ld                      s1,-516(s1)
0x00010efc:  4705              addi                    a4,zero,1
0x00010efe:  1404a7af          lr.w.aq                 a5,(s1)
0x00010f02:  e781              bnez                    a5,8                    # 0x10f0a

----------------
IN: __run_exit_handlers
0x00010f04:  18e4a6af          sc.w                    a3,a4,(s1)
0x00010f08:  fafd              bnez                    a3,-10                  # 0x10efe

----------------
IN: __run_exit_handlers
0x00010f0a:  2781              sext.w                  a5,a5
0x00010f0c:  18079763          bnez                    a5,398                  # 0x1109a

----------------
IN: __run_exit_handlers
0x00010f10:  f8843783          ld                      a5,-120(s0)
0x00010f14:  0007bd83          ld                      s11,0(a5)
0x00010f18:  060d8963          beqz                    s11,114                 # 0x10f8a

----------------
IN: __run_exit_handlers
0x00010f1c:  0a018913          addi                    s2,gp,160
0x00010f20:  4a0d              addi                    s4,zero,3
0x00010f22:  4c01              mv                      s8,zero
0x00010f24:  4b85              addi                    s7,zero,1
0x00010f26:  4b05              addi                    s6,zero,1
0x00010f28:  4a91              addi                    s5,zero,4
0x00010f2a:  4c89              addi                    s9,zero,2
0x00010f2c:  008db783          ld                      a5,8(s11)
0x00010f30:  c7ed              beqz                    a5,234                  # 0x1101a

----------------
IN: __run_exit_handlers
0x00010f32:  17fd              addi                    a5,a5,-1
0x00010f34:  00579713          slli                    a4,a5,5
0x00010f38:  00fdb423          sd                      a5,8(s11)
0x00010f3c:  00ed87b3          add                     a5,s11,a4
0x00010f40:  6b98              ld                      a4,16(a5)
0x00010f42:  00093983          ld                      s3,0(s2)
0x00010f46:  0b470363          beq                     a4,s4,166               # 0x10fec

----------------
IN: __run_exit_handlers
0x00010f4a:  07570563          beq                     a4,s5,106               # 0x10fb4

----------------
IN: __run_exit_handlers
0x00010fb4:  6f98              ld                      a4,24(a5)
0x00010fb6:  7390              ld                      a2,32(a5)
0x00010fb8:  0007b823          sd                      zero,16(a5)
0x00010fbc:  87e2              mv                      a5,s8
0x00010fbe:  0af4a7af          amoswap.w.rl            a5,a5,(s1)
0x00010fc2:  2781              sext.w                  a5,a5
0x00010fc4:  0afbc563          bgt                     a5,s7,170               # 0x1106e

----------------
IN: __run_exit_handlers
0x00010fc8:  85ea              mv                      a1,s10
0x00010fca:  8532              mv                      a0,a2
0x00010fcc:  9702              jalr                    ra,a4,0

----------------
IN: call_fini
0x0001068c:  1101              addi                    sp,sp,-32
0x0001068e:  e426              sd                      s1,8(sp)
0x00010690:  0006e797          auipc                   a5,110                  # 0x7e690
0x00010694:  d1878793          addi                    a5,a5,-744
0x00010698:  0006e497          auipc                   s1,110                  # 0x7e698
0x0001069c:  d2048493          addi                    s1,s1,-736
0x000106a0:  e822              sd                      s0,16(sp)
0x000106a2:  e04a              sd                      s2,0(sp)
0x000106a4:  ec06              sd                      ra,24(sp)
0x000106a6:  1000              addi                    s0,sp,32
0x000106a8:  8c9d              sub                     s1,s1,a5
0x000106aa:  4034d913          srai                    s2,s1,3
0x000106ae:  00090a63          beqz                    s2,20                   # 0x106c2

----------------
IN: call_fini
0x000106b2:  14e1              addi                    s1,s1,-8
0x000106b4:  94be              add                     s1,s1,a5
0x000106b6:  609c              ld                      a5,0(s1)
0x000106b8:  197d              addi                    s2,s2,-1
0x000106ba:  14e1              addi                    s1,s1,-8
0x000106bc:  9782              jalr                    ra,a5,0

----------------
IN: release_registered_frames
0x00010462:  1141              addi                    sp,sp,-16
0x00010464:  e406              sd                      ra,8(sp)
0x00010466:  e022              sd                      s0,0(sp)
0x00010468:  0800              addi                    s0,sp,16
0x0001046a:  00078517          auipc                   a0,120                  # 0x8846a
0x0001046e:  7f650513          addi                    a0,a0,2038
0x00010472:  fb5ff0ef          jal                     ra,-76                  # 0x10426

----------------
IN: btree_destroy
0x00010426:  1101              addi                    sp,sp,-32
0x00010428:  e822              sd                      s0,16(sp)
0x0001042a:  e04a              sd                      s2,0(sp)
0x0001042c:  ec06              sd                      ra,24(sp)
0x0001042e:  e426              sd                      s1,8(sp)
0x00010430:  1000              addi                    s0,sp,32
0x00010432:  892a              mv                      s2,a0
0x00010434:  4581              mv                      a1,zero
0x00010436:  0eb535af          amoswap.d.aq.rl         a1,a1,(a0)
0x0001043a:  e18d              bnez                    a1,34                   # 0x1045c

----------------
IN: btree_destroy
0x0001045c:  f51ff0ef          jal                     ra,-176                 # 0x103ac

----------------
IN: btree_release_tree_recursively
0x000103ac:  7179              addi                    sp,sp,-48
0x000103ae:  f022              sd                      s0,32(sp)
0x000103b0:  ec26              sd                      s1,24(sp)
0x000103b2:  e84a              sd                      s2,16(sp)
0x000103b4:  e44e              sd                      s3,8(sp)
0x000103b6:  f406              sd                      ra,40(sp)
0x000103b8:  1800              addi                    s0,sp,48
0x000103ba:  84ae              mv                      s1,a1
0x000103bc:  89aa              mv                      s3,a0
0x000103be:  852e              mv                      a0,a1
0x000103c0:  43b3f0ef          jal                     ra,261178               # 0x4fffa

----------------
IN: btree_release_tree_recursively
0x000103c4:  00c4a903          lw                      s2,12(s1)
0x000103c8:  02091163          bnez                    s2,34                   # 0x103ea

----------------
IN: btree_release_tree_recursively
0x000103ea:  4789              addi                    a5,zero,2
0x000103ec:  c4dc              sw                      a5,12(s1)
0x000103ee:  00898713          addi                    a4,s3,8
0x000103f2:  0330000f          fence                   rw,rw
0x000103f6:  631c              ld                      a5,0(a4)
0x000103f8:  0230000f          fence                   r,rw
0x000103fc:  ec9c              sd                      a5,24(s1)
0x000103fe:  160736af          lr.d.aq.rl              a3,(a4)
0x00010402:  00f69563          bne                     a3,a5,10                # 0x1040c

----------------
IN: btree_release_tree_recursively
0x00010406:  1a97362f          sc.d.rl                 a2,s1,(a4)
0x0001040a:  fa75              bnez                    a2,-12                  # 0x103fe

----------------
IN: btree_release_tree_recursively
0x0001040c:  40f68633          sub                     a2,a3,a5
0x00010410:  87b6              mv                      a5,a3
0x00010412:  f66d              bnez                    a2,-22                  # 0x103fc

----------------
IN: btree_release_tree_recursively
0x00010414:  7402              ld                      s0,32(sp)
0x00010416:  70a2              ld                      ra,40(sp)
0x00010418:  6942              ld                      s2,16(sp)
0x0001041a:  69a2              ld                      s3,8(sp)
0x0001041c:  8526              mv                      a0,s1
0x0001041e:  64e2              ld                      s1,24(sp)
0x00010420:  6145              addi                    sp,sp,48
0x00010422:  2144006f          j                       262676                  # 0x50636

----------------
IN: btree_destroy
0x00010460:  bff1              j                       -36                     # 0x1043c

----------------
IN: btree_destroy
0x0001043c:  00893483          ld                      s1,8(s2)
0x00010440:  c881              beqz                    s1,16                   # 0x10450

----------------
IN: btree_destroy
0x00010442:  8526              mv                      a0,s1
0x00010444:  6c84              ld                      s1,24(s1)
0x00010446:  709060ef          jal                     ra,28424                # 0x1734e

----------------
IN: __free
0x0001734e:  c555              beqz                    a0,172                  # 0x173fa

----------------
IN: __free
0x00017350:  7179              addi                    sp,sp,-48
0x00017352:  f022              sd                      s0,32(sp)
0x00017354:  ec4a              sd                      s2,24(sp)
0x00017356:  e84e              sd                      s3,16(sp)
0x00017358:  f406              sd                      ra,40(sp)
0x0001735a:  1800              addi                    s0,sp,48
0x0001735c:  0006b917          auipc                   s2,107                  # 0x8235c
0x00017360:  a7493903          ld                      s2,-1420(s2)
0x00017364:  ff853783          ld                      a5,-8(a0)
0x00017368:  ff050593          addi                    a1,a0,-16
0x0001736c:  004906b3          add                     a3,s2,tp
0x00017370:  0027f713          andi                    a4,a5,2
0x00017374:  0006a983          lw                      s3,0(a3)
0x00017378:  e339              bnez                    a4,70                   # 0x173be

----------------
IN: __free
0x0001737a:  02020713          addi                    a4,tp,32
0x0001737e:  6714              ld                      a3,8(a4)
0x00017380:  ceb5              beqz                    a3,124                  # 0x173fc

----------------
IN: __free
0x00017382:  8b91              andi                    a5,a5,4
0x00017384:  0006b517          auipc                   a0,107                  # 0x82384
0x00017388:  2a450513          addi                    a0,a0,676
0x0001738c:  cf89              beqz                    a5,26                   # 0x173a6

----------------
IN: __free
0x000173a6:  4601              mv                      a2,zero
0x000173a8:  dcdfd0ef          jal                     ra,-8756                # 0x15174

----------------
IN: _int_free
0x00015174:  715d              addi                    sp,sp,-80
0x00015176:  e0a2              sd                      s0,64(sp)
0x00015178:  f84a              sd                      s2,48(sp)
0x0001517a:  e486              sd                      ra,72(sp)
0x0001517c:  fc26              sd                      s1,56(sp)
0x0001517e:  0880              addi                    s0,sp,80
0x00015180:  6598              ld                      a4,8(a1)
0x00015182:  ff877913          andi                    s2,a4,-8
0x00015186:  412007b3          neg                     a5,s2
0x0001518a:  1cb7e563          bgtu                    a1,a5,458               # 0x15354

----------------
IN: _int_free
0x0001518e:  00f5f793          andi                    a5,a1,15
0x00015192:  84ae              mv                      s1,a1
0x00015194:  1c079063          bnez                    a5,448                  # 0x15354

----------------
IN: _int_free
0x00015198:  47fd              addi                    a5,zero,31
0x0001519a:  f44e              sd                      s3,40(sp)
0x0001519c:  f052              sd                      s4,32(sp)
0x0001519e:  ec56              sd                      s5,24(sp)
0x000151a0:  1d27f563          bleu                    s2,a5,458               # 0x1536a

----------------
IN: _int_free
0x000151a4:  00877693          andi                    a3,a4,8
0x000151a8:  1c069163          bnez                    a3,450                  # 0x1536a

----------------
IN: _int_free
0x000151ac:  02020793          addi                    a5,tp,32
0x000151b0:  8a32              mv                      s4,a2
0x000151b2:  6790              ld                      a2,8(a5)
0x000151b4:  89aa              mv                      s3,a0
0x000151b6:  10060563          beqz                    a2,266                  # 0x152c0

----------------
IN: _int_free
0x000151ba:  0006d597          auipc                   a1,109                  # 0x821ba
0x000151be:  3d658593          addi                    a1,a1,982
0x000151c2:  75a8              ld                      a0,104(a1)
0x000151c4:  fef90793          addi                    a5,s2,-17
0x000151c8:  8391              srli                    a5,a5,4
0x000151ca:  00073a97          auipc                   s5,115                  # 0x881ca
0x000151ce:  3eea8a93          addi                    s5,s5,1006
0x000151d2:  02a7f263          bleu                    a0,a5,36                # 0x151f6

----------------
IN: _int_free
0x000151d6:  008ab883          ld                      a7,8(s5)
0x000151da:  0184b303          ld                      t1,24(s1)
0x000151de:  7da8              ld                      a0,120(a1)
0x000151e0:  01048813          addi                    a6,s1,16
0x000151e4:  23130763          beq                     t1,a7,558               # 0x15412

----------------
IN: _int_free
0x000151e8:  00179693          slli                    a3,a5,1
0x000151ec:  96b2              add                     a3,a3,a2
0x000151ee:  0006d583          lhu                     a1,0(a3)
0x000151f2:  10a5ee63          bgtu                    a0,a1,284               # 0x1530e

----------------
IN: _int_free
0x0001530e:  078e              slli                    a5,a5,3
0x00015310:  963e              add                     a2,a2,a5
0x00015312:  625c              ld                      a5,128(a2)
0x00015314:  00c85713          srli                    a4,a6,12
0x00015318:  0114bc23          sd                      a7,24(s1)
0x0001531c:  8fb9              xor                     a5,a5,a4
0x0001531e:  e89c              sd                      a5,16(s1)
0x00015320:  09063023          sd                      a6,128(a2)
0x00015324:  2585              addiw                   a1,a1,1
0x00015326:  00b69023          sh                      a1,0(a3)
0x0001532a:  60a6              ld                      ra,72(sp)
0x0001532c:  6406              ld                      s0,64(sp)
0x0001532e:  79a2              ld                      s3,40(sp)
0x00015330:  7a02              ld                      s4,32(sp)
0x00015332:  6ae2              ld                      s5,24(sp)
0x00015334:  74e2              ld                      s1,56(sp)
0x00015336:  7942              ld                      s2,48(sp)
0x00015338:  6161              addi                    sp,sp,80
0x0001533a:  8082              ret                     

----------------
IN: __free
0x000173ac:  70a2              ld                      ra,40(sp)
0x000173ae:  7402              ld                      s0,32(sp)
0x000173b0:  9912              add                     s2,s2,tp
0x000173b2:  01392023          sw                      s3,0(s2)
0x000173b6:  6962              ld                      s2,24(sp)
0x000173b8:  69c2              ld                      s3,16(sp)
0x000173ba:  6145              addi                    sp,sp,48
0x000173bc:  8082              ret                     

----------------
IN: btree_destroy
0x0001044a:  00993423          sd                      s1,8(s2)
0x0001044e:  f8f5              bnez                    s1,-12                  # 0x10442

----------------
IN: btree_destroy
0x00010450:  60e2              ld                      ra,24(sp)
0x00010452:  6442              ld                      s0,16(sp)
0x00010454:  64a2              ld                      s1,8(sp)
0x00010456:  6902              ld                      s2,0(sp)
0x00010458:  6105              addi                    sp,sp,32
0x0001045a:  8082              ret                     

----------------
IN: release_registered_frames
0x00010476:  00078517          auipc                   a0,120                  # 0x88476
0x0001047a:  7d250513          addi                    a0,a0,2002
0x0001047e:  fa9ff0ef          jal                     ra,-88                  # 0x10426

----------------
IN: release_registered_frames
0x00010482:  60a2              ld                      ra,8(sp)
0x00010484:  6402              ld                      s0,0(sp)
0x00010486:  4785              addi                    a5,zero,1
0x00010488:  00078717          auipc                   a4,120                  # 0x88488
0x0001048c:  7ef70823          sb                      a5,2032(a4)
0x00010490:  0141              addi                    sp,sp,16
0x00010492:  8082              ret                     

----------------
IN: call_fini
0x000106be:  fe091ce3          bnez                    s2,-8                   # 0x106b6

----------------
IN: call_fini
0x000106b6:  609c              ld                      a5,0(s1)
0x000106b8:  197d              addi                    s2,s2,-1
0x000106ba:  14e1              addi                    s1,s1,-8
0x000106bc:  9782              jalr                    ra,a5,0

----------------
IN: 
0x000105be:  1101              addi                    sp,sp,-32
0x000105c0:  e822              sd                      s0,16(sp)
0x000105c2:  e426              sd                      s1,8(sp)
0x000105c4:  ec06              sd                      ra,24(sp)
0x000105c6:  1000              addi                    s0,sp,32
0x000105c8:  000844b7          lui                     s1,132
0x000105cc:  8a04c783          lbu                     a5,-1888(s1)
0x000105d0:  e38d              bnez                    a5,34                   # 0x105f2

----------------
IN: 
0x000105d2:  f83ff0ef          jal                     ra,-126                 # 0x10554

----------------
IN: 
0x00010554:  1141              addi                    sp,sp,-16
0x00010556:  e422              sd                      s0,8(sp)
0x00010558:  00084537          lui                     a0,132
0x0001055c:  0800              addi                    s0,sp,16
0x0001055e:  00084737          lui                     a4,132
0x00010562:  89850793          addi                    a5,a0,-1896
0x00010566:  89870713          addi                    a4,a4,-1896
0x0001056a:  00f70a63          beq                     a4,a5,20                # 0x1057e

----------------
IN: 
0x0001057e:  6422              ld                      s0,8(sp)
0x00010580:  0141              addi                    sp,sp,16
0x00010582:  8082              ret                     

----------------
IN: 
0x000105d6:  000527b7          lui                     a5,82
0x000105da:  fcc78793          addi                    a5,a5,-52
0x000105de:  c799              beqz                    a5,14                   # 0x105ec

----------------
IN: 
0x000105e0:  0006e537          lui                     a0,110
0x000105e4:  ed850513          addi                    a0,a0,-296
0x000105e8:  1e5410ef          jal                     ra,268772               # 0x51fcc

----------------
IN: __deregister_frame_info
0x00051fcc:  1141              addi                    sp,sp,-16
0x00051fce:  e422              sd                      s0,8(sp)
0x00051fd0:  0800              addi                    s0,sp,16
0x00051fd2:  c519              beqz                    a0,14                   # 0x51fe0

----------------
IN: __deregister_frame_info
0x00051fd4:  411c              lw                      a5,0(a0)
0x00051fd6:  c789              beqz                    a5,10                   # 0x51fe0

----------------
IN: __deregister_frame_info
0x00051fd8:  6422              ld                      s0,8(sp)
0x00051fda:  0141              addi                    sp,sp,16
0x00051fdc:  e90ff06f          j                       -2416                   # 0x5166c

----------------
IN: __deregister_frame_info_bases.part.0
0x0005166c:  7179              addi                    sp,sp,-48
0x0005166e:  f022              sd                      s0,32(sp)
0x00051670:  ec26              sd                      s1,24(sp)
0x00051672:  f406              sd                      ra,40(sp)
0x00051674:  1800              addi                    s0,sp,48
0x00051676:  85aa              mv                      a1,a0
0x00051678:  00037517          auipc                   a0,55                   # 0x88678
0x0005167c:  5d050513          addi                    a0,a0,1488
0x00051680:  d6aff0ef          jal                     ra,-2710                # 0x50bea

----------------
IN: btree_remove
0x00050bea:  7159              addi                    sp,sp,-112
0x00050bec:  f0a2              sd                      s0,96(sp)
0x00050bee:  eca6              sd                      s1,88(sp)
0x00050bf0:  e8ca              sd                      s2,80(sp)
0x00050bf2:  f45e              sd                      s7,40(sp)
0x00050bf4:  f062              sd                      s8,32(sp)
0x00050bf6:  f486              sd                      ra,104(sp)
0x00050bf8:  1880              addi                    s0,sp,112
0x00050bfa:  01050493          addi                    s1,a0,16
0x00050bfe:  892a              mv                      s2,a0
0x00050c00:  8526              mv                      a0,s1
0x00050c02:  8c2e              mv                      s8,a1
0x00050c04:  bf6ff0ef          jal                     ra,-3082                # 0x4fffa

----------------
IN: btree_remove
0x00050c08:  00093b83          ld                      s7,0(s2)
0x00050c0c:  5a0b8563          beqz                    s7,1450                 # 0x511b6

----------------
IN: btree_remove
0x000511b6:  8526              mv                      a0,s1
0x000511b8:  c7eff0ef          jal                     ra,-2946                # 0x50636

----------------
IN: btree_remove
0x000511bc:  4481              mv                      s1,zero
0x000511be:  b965              j                       -840                    # 0x50e76

----------------
IN: btree_remove
0x00050e76:  70a6              ld                      ra,104(sp)
0x00050e78:  7406              ld                      s0,96(sp)
0x00050e7a:  6946              ld                      s2,80(sp)
0x00050e7c:  7ba2              ld                      s7,40(sp)
0x00050e7e:  7c02              ld                      s8,32(sp)
0x00050e80:  8526              mv                      a0,s1
0x00050e82:  64e6              ld                      s1,88(sp)
0x00050e84:  6165              addi                    sp,sp,112
0x00050e86:  8082              ret                     

----------------
IN: __deregister_frame_info_bases.part.0
0x00051684:  84aa              mv                      s1,a0
0x00051686:  cd15              beqz                    a0,60                   # 0x516c2

----------------
IN: __deregister_frame_info_bases.part.0
0x000516c2:  00037797          auipc                   a5,55                   # 0x886c2
0x000516c6:  5b67c783          lbu                     a5,1462(a5)
0x000516ca:  ffe1              bnez                    a5,-40                  # 0x516a2

----------------
IN: __deregister_frame_info_bases.part.0
0x000516a2:  70a2              ld                      ra,40(sp)
0x000516a4:  7402              ld                      s0,32(sp)
0x000516a6:  8526              mv                      a0,s1
0x000516a8:  64e2              ld                      s1,24(sp)
0x000516aa:  6145              addi                    sp,sp,48
0x000516ac:  8082              ret                     

----------------
IN: 
0x000105ec:  4785              addi                    a5,zero,1
0x000105ee:  8af48023          sb                      a5,-1888(s1)
0x000105f2:  60e2              ld                      ra,24(sp)
0x000105f4:  6442              ld                      s0,16(sp)
0x000105f6:  64a2              ld                      s1,8(sp)
0x000105f8:  6105              addi                    sp,sp,32
0x000105fa:  8082              ret                     

----------------
IN: call_fini
0x000106c2:  60e2              ld                      ra,24(sp)
0x000106c4:  6442              ld                      s0,16(sp)
0x000106c6:  64a2              ld                      s1,8(sp)
0x000106c8:  6902              ld                      s2,0(sp)
0x000106ca:  6105              addi                    sp,sp,32
0x000106cc:  8082              ret                     

----------------
IN: __run_exit_handlers
0x00010fce:  1404a7af          lr.w.aq                 a5,(s1)
0x00010fd2:  e781              bnez                    a5,8                    # 0x10fda

----------------
IN: __run_exit_handlers
0x00010fd4:  1964a72f          sc.w                    a4,s6,(s1)
0x00010fd8:  fb7d              bnez                    a4,-10                  # 0x10fce

----------------
IN: __run_exit_handlers
0x00010fda:  2781              sext.w                  a5,a5
0x00010fdc:  dfc9              beqz                    a5,-102                 # 0x10f76

----------------
IN: __run_exit_handlers
0x00010f76:  00093783          ld                      a5,0(s2)
0x00010f7a:  fb3789e3          beq                     a5,s3,-78               # 0x10f2c

----------------
IN: __run_exit_handlers
0x00010f2c:  008db783          ld                      a5,8(s11)
0x00010f30:  c7ed              beqz                    a5,234                  # 0x1101a

----------------
IN: __run_exit_handlers
0x0001101a:  000db783          ld                      a5,0(s11)
0x0001101e:  f8843703          ld                      a4,-120(s0)
0x00011022:  e31c              sd                      a5,0(a4)
0x00011024:  d3bd              beqz                    a5,-154                 # 0x10f8a

----------------
IN: __run_exit_handlers
0x00010f8a:  4705              addi                    a4,zero,1
0x00010f8c:  4ce18023          sb                      a4,1216(gp)
0x00010f90:  4781              mv                      a5,zero
0x00010f92:  0af4a7af          amoswap.w.rl            a5,a5,(s1)
0x00010f96:  2781              sext.w                  a5,a5
0x00010f98:  0ef74a63          bgt                     a5,a4,244               # 0x1108c

----------------
IN: __run_exit_handlers
0x00010f9c:  f7043783          ld                      a5,-144(s0)
0x00010fa0:  c799              beqz                    a5,14                   # 0x10fae

----------------
IN: __run_exit_handlers
0x00010fa2:  00071797          auipc                   a5,113                  # 0x81fa2
0x00010fa6:  dee7b783          ld                      a5,-530(a5)
0x00010faa:  c391              beqz                    a5,4                    # 0x10fae

----------------
IN: __run_exit_handlers
0x00010fac:  9782              jalr                    ra,a5,0

----------------
IN: _IO_cleanup
0x00012b38:  7135              addi                    sp,sp,-160
0x00012b3a:  ed06              sd                      ra,152(sp)
0x00012b3c:  e922              sd                      s0,144(sp)
0x00012b3e:  e526              sd                      s1,136(sp)
0x00012b40:  1100              addi                    s0,sp,160
0x00012b42:  fcce              sd                      s3,120(sp)
0x00012b44:  f4d6              sd                      s5,104(sp)
0x00012b46:  f0da              sd                      s6,96(sp)
0x00012b48:  e0ea              sd                      s10,64(sp)
0x00012b4a:  0006fa97          auipc                   s5,111                  # 0x81b4a
0x00012b4e:  0c6aba83          ld                      s5,198(s5)
0x00012b52:  000ab783          ld                      a5,0(s5)
0x00012b56:  f8f43423          sd                      a5,-120(s0)
0x00012b5a:  4781              mv                      a5,zero
0x00012b5c:  b0dff0ef          jal                     ra,-1268                # 0x12668

----------------
IN: _IO_flush_all
0x00012668:  7135              addi                    sp,sp,-160
0x0001266a:  e922              sd                      s0,144(sp)
0x0001266c:  e526              sd                      s1,136(sp)
0x0001266e:  1100              addi                    s0,sp,160
0x00012670:  fcce              sd                      s3,120(sp)
0x00012672:  f0da              sd                      s6,96(sp)
0x00012674:  ecde              sd                      s7,88(sp)
0x00012676:  fc6e              sd                      s11,56(sp)
0x00012678:  ed06              sd                      ra,152(sp)
0x0001267a:  0006fb17          auipc                   s6,111                  # 0x8167a
0x0001267e:  596b3b03          ld                      s6,1430(s6)
0x00012682:  000b3783          ld                      a5,0(s6)
0x00012686:  f8f43423          sd                      a5,-120(s0)
0x0001268a:  4781              mv                      a5,zero
0x0001268c:  f6840b93          addi                    s7,s0,-152
0x00012690:  fffff797          auipc                   a5,-1                   # 0x11690
0x00012694:  d1678793          addi                    a5,a5,-746
0x00012698:  855e              mv                      a0,s7
0x0001269a:  f6f43423          sd                      a5,-152(s0)
0x0001269e:  f6043823          sd                      zero,-144(s0)
0x000126a2:  327000ef          jal                     ra,2854                 # 0x131c8

----------------
IN: __libc_cleanup_push_defer
0x000131c8:  1141              addi                    sp,sp,-16
0x000131ca:  e422              sd                      s0,8(sp)
0x000131cc:  0800              addi                    s0,sp,16
0x000131ce:  99823783          ld                      a5,-1640(tp)
0x000131d2:  8712              mv                      a4,tp
0x000131d4:  9a820613          addi                    a2,tp,-1624
0x000131d8:  ed1c              sd                      a5,24(a0)
0x000131da:  421c              lw                      a5,0(a2)
0x000131dc:  0027f693          andi                    a3,a5,2
0x000131e0:  2781              sext.w                  a5,a5
0x000131e2:  ea91              bnez                    a3,20                   # 0x131f6

----------------
IN: __libc_cleanup_push_defer
0x000131e4:  4017d79b          sraiw                   a5,a5,1
0x000131e8:  6422              ld                      s0,8(sp)
0x000131ea:  8b85              andi                    a5,a5,1
0x000131ec:  c91c              sw                      a5,16(a0)
0x000131ee:  98a73c23          sd                      a0,-1640(a4)
0x000131f2:  0141              addi                    sp,sp,16
0x000131f4:  8082              ret                     

----------------
IN: _IO_flush_all
0x000126a6:  8a022983          lw                      s3,-1888(tp)
0x000126aa:  4c818d93          addi                    s11,gp,1224
0x000126ae:  010db783          ld                      a5,16(s11)
0x000126b2:  8a020493          addi                    s1,tp,-1888
0x000126b6:  00099463          bnez                    s3,8                    # 0x126be

----------------
IN: _IO_flush_all
0x000126ba:  18078263          beqz                    a5,388                  # 0x1283e

----------------
IN: _IO_flush_all
0x0001283e:  4785              addi                    a5,zero,1
0x00012840:  009db823          sd                      s1,16(s11)
0x00012844:  00fda423          sw                      a5,8(s11)
0x00012848:  0006f497          auipc                   s1,111                  # 0x81848
0x0001284c:  7c84b483          ld                      s1,1992(s1)
0x00012850:  e8049de3          bnez                    s1,-358                 # 0x126ea

----------------
IN: _IO_flush_all
0x000126ea:  e14a              sd                      s2,128(sp)
0x000126ec:  6905              lui                     s2,1
0x000126ee:  f8d2              sd                      s4,112(sp)
0x000126f0:  f4d6              sd                      s5,104(sp)
0x000126f2:  e8e2              sd                      s8,80(sp)
0x000126f4:  e0ea              sd                      s10,64(sp)
0x000126f6:  e4e6              sd                      s9,72(sp)
0x000126f8:  4981              mv                      s3,zero
0x000126fa:  6d21              lui                     s10,8
0x000126fc:  4a85              addi                    s5,zero,1
0x000126fe:  0006ea17          auipc                   s4,110                  # 0x806fe
0x00012702:  64aa0a13          addi                    s4,s4,1610
0x00012706:  92f90913          addi                    s2,s2,-1745
0x0001270a:  4c05              addi                    s8,zero,1
0x0001270c:  409c              lw                      a5,0(s1)
0x0001270e:  009db023          sd                      s1,0(s11)
0x00012712:  01a7f7b3          and                     a5,a5,s10
0x00012716:  03079713          slli                    a4,a5,48
0x0001271a:  02074863          bltz                    a4,48                   # 0x1274a

----------------
IN: _IO_flush_all
0x0001271e:  64c8              ld                      a0,136(s1)
0x00012720:  8a022703          lw                      a4,-1888(tp)
0x00012724:  8a020c93          addi                    s9,tp,-1888
0x00012728:  651c              ld                      a5,8(a0)
0x0001272a:  e311              bnez                    a4,4                    # 0x1272e

----------------
IN: _IO_flush_all
0x0001272c:  c3e1              beqz                    a5,192                  # 0x127ec

----------------
IN: _IO_flush_all
0x000127ec:  4785              addi                    a5,zero,1
0x000127ee:  c11c              sw                      a5,0(a0)
0x000127f0:  0c04a783          lw                      a5,192(s1)
0x000127f4:  01953423          sd                      s9,8(a0)
0x000127f8:  f4f04de3          bgtz                    a5,-166                 # 0x12752

----------------
IN: _IO_flush_all
0x000127fc:  7498              ld                      a4,40(s1)
0x000127fe:  709c              ld                      a5,32(s1)
0x00012800:  f6e7fde3          bleu                    a4,a5,-134              # 0x1277a

----------------
IN: _IO_flush_all
0x0001277a:  409c              lw                      a5,0(s1)
0x0001277c:  01a7f7b3          and                     a5,a5,s10
0x00012780:  03079713          slli                    a4,a5,48
0x00012784:  00074c63          bltz                    a4,24                   # 0x1279c

----------------
IN: _IO_flush_all
0x00012788:  64c8              ld                      a0,136(s1)
0x0001278a:  8a022703          lw                      a4,-1888(tp)
0x0001278e:  4154              lw                      a3,4(a0)
0x00012790:  e759              bnez                    a4,142                  # 0x1281e

----------------
IN: _IO_flush_all
0x00012792:  e2d1              bnez                    a3,132                  # 0x12816

----------------
IN: _IO_flush_all
0x00012794:  00053423          sd                      zero,8(a0)
0x00012798:  00052023          sw                      zero,0(a0)
0x0001279c:  74a4              ld                      s1,104(s1)
0x0001279e:  4c01b423          sd                      zero,1224(gp)
0x000127a2:  f4ad              bnez                    s1,-150                 # 0x1270c

----------------
IN: _IO_flush_all
0x0001270c:  409c              lw                      a5,0(s1)
0x0001270e:  009db023          sd                      s1,0(s11)
0x00012712:  01a7f7b3          and                     a5,a5,s10
0x00012716:  03079713          slli                    a4,a5,48
0x0001271a:  02074863          bltz                    a4,48                   # 0x1274a

----------------
IN: _IO_flush_all
0x000127a4:  690a              ld                      s2,128(sp)
0x000127a6:  7a46              ld                      s4,112(sp)
0x000127a8:  7aa6              ld                      s5,104(sp)
0x000127aa:  6c46              ld                      s8,80(sp)
0x000127ac:  6ca6              ld                      s9,72(sp)
0x000127ae:  6d06              ld                      s10,64(sp)
0x000127b0:  8a022703          lw                      a4,-1888(tp)
0x000127b4:  00cda683          lw                      a3,12(s11)
0x000127b8:  cf51              beqz                    a4,156                  # 0x12854

----------------
IN: _IO_flush_all
0x00012854:  00cda683          lw                      a3,12(s11)
0x00012858:  f2b5              bnez                    a3,-156                 # 0x127bc

----------------
IN: _IO_flush_all
0x0001285a:  4c01bc23          sd                      zero,1240(gp)
0x0001285e:  4c01a823          sw                      zero,1232(gp)
0x00012862:  b78d              j                       -158                    # 0x127c4

----------------
IN: _IO_flush_all
0x000127c4:  855e              mv                      a0,s7
0x000127c6:  263000ef          jal                     ra,2658                 # 0x13228

----------------
IN: __libc_cleanup_pop_restore
0x00013228:  6d18              ld                      a4,24(a0)
0x0001322a:  9a820613          addi                    a2,tp,-1624
0x0001322e:  98e23c23          sd                      a4,-1640(tp)
0x00013232:  4218              lw                      a4,0(a2)
0x00013234:  4914              lw                      a3,16(a0)
0x00013236:  ca95              beqz                    a3,52                   # 0x1326a

----------------
IN: __libc_cleanup_pop_restore
0x0001326a:  8082              ret                     

----------------
IN: _IO_flush_all
0x000127ca:  f8843703          ld                      a4,-120(s0)
0x000127ce:  000b3783          ld                      a5,0(s6)
0x000127d2:  8fb9              xor                     a5,a5,a4
0x000127d4:  4701              mv                      a4,zero
0x000127d6:  e7f9              bnez                    a5,206                  # 0x128a4

----------------
IN: _IO_flush_all
0x000127d8:  60ea              ld                      ra,152(sp)
0x000127da:  644a              ld                      s0,144(sp)
0x000127dc:  64aa              ld                      s1,136(sp)
0x000127de:  7b06              ld                      s6,96(sp)
0x000127e0:  6be6              ld                      s7,88(sp)
0x000127e2:  7de2              ld                      s11,56(sp)
0x000127e4:  854e              mv                      a0,s3
0x000127e6:  79e6              ld                      s3,120(sp)
0x000127e8:  610d              addi                    sp,sp,160
0x000127ea:  8082              ret                     

----------------
IN: _IO_cleanup
0x00012b60:  f6840b13          addi                    s6,s0,-152
0x00012b64:  fffff797          auipc                   a5,-1                   # 0x11b64
0x00012b68:  84278793          addi                    a5,a5,-1982
0x00012b6c:  89aa              mv                      s3,a0
0x00012b6e:  855a              mv                      a0,s6
0x00012b70:  f6f43423          sd                      a5,-152(s0)
0x00012b74:  f6043823          sd                      zero,-144(s0)
0x00012b78:  650000ef          jal                     ra,1616                 # 0x131c8

----------------
IN: _IO_cleanup
0x00012b7c:  8a022703          lw                      a4,-1888(tp)
0x00012b80:  4c818d13          addi                    s10,gp,1224
0x00012b84:  010d3783          ld                      a5,16(s10)
0x00012b88:  8a020493          addi                    s1,tp,-1888
0x00012b8c:  e319              bnez                    a4,6                    # 0x12b92

----------------
IN: _IO_cleanup
0x00012b8e:  1a078863          beqz                    a5,432                  # 0x12d3e

----------------
IN: _IO_cleanup
0x00012d3e:  4785              addi                    a5,zero,1
0x00012d40:  009d3823          sd                      s1,16(s10)
0x00012d44:  00fd2423          sw                      a5,8(s10)
0x00012d48:  0006f497          auipc                   s1,111                  # 0x81d48
0x00012d4c:  2c84b483          ld                      s1,712(s1)
0x00012d50:  e60496e3          bnez                    s1,-404                 # 0x12bbc

----------------
IN: _IO_cleanup
0x00012bbc:  e14a              sd                      s2,128(sp)
0x00012bbe:  6905              lui                     s2,1
0x00012bc0:  f8d2              sd                      s4,112(sp)
0x00012bc2:  ecde              sd                      s7,88(sp)
0x00012bc4:  e8e2              sd                      s8,80(sp)
0x00012bc6:  fc6e              sd                      s11,56(sp)
0x00012bc8:  e4e6              sd                      s9,72(sp)
0x00012bca:  6da1              lui                     s11,8
0x00012bcc:  5c7d              addi                    s8,zero,-1
0x00012bce:  0006eb97          auipc                   s7,110                  # 0x80bce
0x00012bd2:  17ab8b93          addi                    s7,s7,378
0x00012bd6:  92f90913          addi                    s2,s2,-1745
0x00012bda:  4a05              addi                    s4,zero,1
0x00012bdc:  409c              lw                      a5,0(s1)
0x00012bde:  009d3023          sd                      s1,0(s10)
0x00012be2:  01b7f733          and                     a4,a5,s11
0x00012be6:  03071693          slli                    a3,a4,48
0x00012bea:  0206c963          bltz                    a3,50                   # 0x12c1c

----------------
IN: _IO_cleanup
0x00012bee:  64c8              ld                      a0,136(s1)
0x00012bf0:  8a022683          lw                      a3,-1888(tp)
0x00012bf4:  8a020c93          addi                    s9,tp,-1888
0x00012bf8:  6518              ld                      a4,8(a0)
0x00012bfa:  e291              bnez                    a3,4                    # 0x12bfe

----------------
IN: _IO_cleanup
0x00012bfc:  cf79              beqz                    a4,222                  # 0x12cda

----------------
IN: _IO_cleanup
0x00012cda:  4705              addi                    a4,zero,1
0x00012cdc:  c118              sw                      a4,0(a0)
0x00012cde:  01953423          sd                      s9,8(a0)
0x00012ce2:  0027f713          andi                    a4,a5,2
0x00012ce6:  df15              beqz                    a4,-196                 # 0x12c22

----------------
IN: _IO_cleanup
0x00012ce8:  8a022703          lw                      a4,-1888(tp)
0x00012cec:  57fd              addi                    a5,zero,-1
0x00012cee:  0cf4a023          sw                      a5,192(s1)
0x00012cf2:  4154              lw                      a3,4(a0)
0x00012cf4:  ef01              bnez                    a4,24                   # 0x12d0c

----------------
IN: _IO_cleanup
0x00012cf6:  ea85              bnez                    a3,48                   # 0x12d26

----------------
IN: _IO_cleanup
0x00012cf8:  00053423          sd                      zero,8(a0)
0x00012cfc:  00052023          sw                      zero,0(a0)
0x00012d00:  bfad              j                       -134                    # 0x12c7a

----------------
IN: _IO_cleanup
0x00012c7a:  74a4              ld                      s1,104(s1)
0x00012c7c:  4c01b423          sd                      zero,1224(gp)
0x00012c80:  fcb1              bnez                    s1,-164                 # 0x12bdc

----------------
IN: _IO_cleanup
0x00012bdc:  409c              lw                      a5,0(s1)
0x00012bde:  009d3023          sd                      s1,0(s10)
0x00012be2:  01b7f733          and                     a4,a5,s11
0x00012be6:  03071693          slli                    a3,a4,48
0x00012bea:  0206c963          bltz                    a3,50                   # 0x12c1c

----------------
IN: _IO_cleanup
0x00012c22:  0c04a703          lw                      a4,192(s1)
0x00012c26:  c331              beqz                    a4,68                   # 0x12c6a

----------------
IN: _IO_cleanup
0x00012c28:  01cd4703          lbu                     a4,28(s10)
0x00012c2c:  ef11              bnez                    a4,28                   # 0x12c48

----------------
IN: _IO_cleanup
0x00012c2e:  0017f713          andi                    a4,a5,1
0x00012c32:  eb19              bnez                    a4,22                   # 0x12c48

----------------
IN: _IO_cleanup
0x00012c34:  020d3683          ld                      a3,32(s10)
0x00012c38:  7c98              ld                      a4,56(s1)
0x00012c3a:  0017e793          ori                     a5,a5,1
0x00012c3e:  c09c              sw                      a5,0(s1)
0x00012c40:  f4d4              sd                      a3,168(s1)
0x00012c42:  029d3023          sd                      s1,32(s10)
0x00012c46:  f8d8              sd                      a4,176(s1)
0x00012c48:  0d84bc83          ld                      s9,216(s1)
0x00012c4c:  417c87b3          sub                     a5,s9,s7
0x00012c50:  14f96363          bgtu                    a5,s2,326               # 0x12d96

----------------
IN: _IO_cleanup
0x00012c54:  058cb783          ld                      a5,88(s9)
0x00012c58:  4601              mv                      a2,zero
0x00012c5a:  4581              mv                      a1,zero
0x00012c5c:  8526              mv                      a0,s1
0x00012c5e:  9782              jalr                    ra,a5,0

----------------
IN: _IO_new_file_setbuf
0x00021c70:  1101              addi                    sp,sp,-32
0x00021c72:  e822              sd                      s0,16(sp)
0x00021c74:  e426              sd                      s1,8(sp)
0x00021c76:  ec06              sd                      ra,24(sp)
0x00021c78:  1000              addi                    s0,sp,32
0x00021c7a:  84aa              mv                      s1,a0
0x00021c7c:  cd2f00ef          jal                     ra,-64302               # 0x1214e

----------------
IN: _IO_default_setbuf
0x0001214e:  7179              addi                    sp,sp,-48
0x00012150:  f022              sd                      s0,32(sp)
0x00012152:  ec26              sd                      s1,24(sp)
0x00012154:  e84a              sd                      s2,16(sp)
0x00012156:  e44e              sd                      s3,8(sp)
0x00012158:  e052              sd                      s4,0(sp)
0x0001215a:  f406              sd                      ra,40(sp)
0x0001215c:  1800              addi                    s0,sp,48
0x0001215e:  0d853a03          ld                      s4,216(a0)
0x00012162:  6785              lui                     a5,1
0x00012164:  0006f717          auipc                   a4,111                  # 0x81164
0x00012168:  be470713          addi                    a4,a4,-1052
0x0001216c:  40ea0733          sub                     a4,s4,a4
0x00012170:  92f78793          addi                    a5,a5,-1745
0x00012174:  84aa              mv                      s1,a0
0x00012176:  89ae              mv                      s3,a1
0x00012178:  8932              mv                      s2,a2
0x0001217a:  08e7e063          bgtu                    a4,a5,128               # 0x121fa

----------------
IN: _IO_default_setbuf
0x0001217e:  060a3783          ld                      a5,96(s4)
0x00012182:  8526              mv                      a0,s1
0x00012184:  9782              jalr                    ra,a5,0

----------------
IN: _IO_new_file_sync
0x00022744:  7179              addi                    sp,sp,-48
0x00022746:  f022              sd                      s0,32(sp)
0x00022748:  ec26              sd                      s1,24(sp)
0x0002274a:  f406              sd                      ra,40(sp)
0x0002274c:  1800              addi                    s0,sp,48
0x0002274e:  7510              ld                      a2,40(a0)
0x00022750:  710c              ld                      a1,32(a0)
0x00022752:  84aa              mv                      s1,a0
0x00022754:  00c5fe63          bleu                    a2,a1,28                # 0x22770

----------------
IN: _IO_new_file_sync
0x00022770:  6498              ld                      a4,8(s1)
0x00022772:  689c              ld                      a5,16(s1)
0x00022774:  40f705b3          sub                     a1,a4,a5
0x00022778:  02f70b63          beq                     a4,a5,54                # 0x227ae

----------------
IN: _IO_new_file_sync
0x000227ae:  57fd              addi                    a5,zero,-1
0x000227b0:  e8dc              sd                      a5,144(s1)
0x000227b2:  4501              mv                      a0,zero
0x000227b4:  70a2              ld                      ra,40(sp)
0x000227b6:  7402              ld                      s0,32(sp)
0x000227b8:  64e2              ld                      s1,24(sp)
0x000227ba:  6145              addi                    sp,sp,48
0x000227bc:  8082              ret                     

----------------
IN: _IO_default_setbuf
0x00012186:  57fd              addi                    a5,zero,-1
0x00012188:  06f50c63          beq                     a0,a5,120               # 0x12200

----------------
IN: _IO_default_setbuf
0x0001218c:  4098              lw                      a4,0(s1)
0x0001218e:  7c88              ld                      a0,56(s1)
0x00012190:  00098463          beqz                    s3,8                    # 0x12198

----------------
IN: _IO_default_setbuf
0x00012198:  00276793          ori                     a5,a4,2
0x0001219c:  c09c              sw                      a5,0(s1)
0x0001219e:  08348993          addi                    s3,s1,131
0x000121a2:  08448913          addi                    s2,s1,132
0x000121a6:  c119              beqz                    a0,6                    # 0x121ac

----------------
IN: _IO_default_setbuf
0x000121a8:  8b05              andi                    a4,a4,1
0x000121aa:  c721              beqz                    a4,72                   # 0x121f2

----------------
IN: _IO_default_setbuf
0x000121ac:  0017e793          ori                     a5,a5,1
0x000121b0:  0334bc23          sd                      s3,56(s1)
0x000121b4:  0524b023          sd                      s2,64(s1)
0x000121b8:  c09c              sw                      a5,0(s1)
0x000121ba:  0204b823          sd                      zero,48(s1)
0x000121be:  0204b423          sd                      zero,40(s1)
0x000121c2:  0204b023          sd                      zero,32(s1)
0x000121c6:  0004b823          sd                      zero,16(s1)
0x000121ca:  0004b423          sd                      zero,8(s1)
0x000121ce:  0004bc23          sd                      zero,24(s1)
0x000121d2:  8526              mv                      a0,s1
0x000121d4:  70a2              ld                      ra,40(sp)
0x000121d6:  7402              ld                      s0,32(sp)
0x000121d8:  64e2              ld                      s1,24(sp)
0x000121da:  6942              ld                      s2,16(sp)
0x000121dc:  69a2              ld                      s3,8(sp)
0x000121de:  6a02              ld                      s4,0(sp)
0x000121e0:  6145              addi                    sp,sp,48
0x000121e2:  8082              ret                     

----------------
IN: _IO_new_file_setbuf
0x00021c80:  c909              beqz                    a0,18                   # 0x21c92

----------------
IN: _IO_new_file_setbuf
0x00021c82:  7c9c              ld                      a5,56(s1)
0x00021c84:  8526              mv                      a0,s1
0x00021c86:  f89c              sd                      a5,48(s1)
0x00021c88:  f49c              sd                      a5,40(s1)
0x00021c8a:  f09c              sd                      a5,32(s1)
0x00021c8c:  ec9c              sd                      a5,24(s1)
0x00021c8e:  e49c              sd                      a5,8(s1)
0x00021c90:  e89c              sd                      a5,16(s1)
0x00021c92:  60e2              ld                      ra,24(sp)
0x00021c94:  6442              ld                      s0,16(sp)
0x00021c96:  64a2              ld                      s1,8(sp)
0x00021c98:  6105              addi                    sp,sp,32
0x00021c9a:  8082              ret                     

----------------
IN: _IO_cleanup
0x00012c60:  0c04a783          lw                      a5,192(s1)
0x00012c64:  06f04463          bgtz                    a5,104                  # 0x12ccc

----------------
IN: _IO_cleanup
0x00012c68:  409c              lw                      a5,0(s1)
0x00012c6a:  01b7f7b3          and                     a5,a5,s11
0x00012c6e:  0d84a023          sw                      s8,192(s1)
0x00012c72:  03079713          slli                    a4,a5,48
0x00012c76:  08075663          bgez                    a4,140                  # 0x12d02

----------------
IN: _IO_cleanup
0x00012d02:  64c8              ld                      a0,136(s1)
0x00012d04:  8a022703          lw                      a4,-1888(tp)
0x00012d08:  4154              lw                      a3,4(a0)
0x00012d0a:  d775              beqz                    a4,-20                  # 0x12cf6

----------------
IN: _IO_cleanup
0x00012c6a:  01b7f7b3          and                     a5,a5,s11
0x00012c6e:  0d84a023          sw                      s8,192(s1)
0x00012c72:  03079713          slli                    a4,a5,48
0x00012c76:  08075663          bgez                    a4,140                  # 0x12d02

----------------
IN: _IO_cleanup
0x00012c82:  690a              ld                      s2,128(sp)
0x00012c84:  7a46              ld                      s4,112(sp)
0x00012c86:  6be6              ld                      s7,88(sp)
0x00012c88:  6c46              ld                      s8,80(sp)
0x00012c8a:  6ca6              ld                      s9,72(sp)
0x00012c8c:  7de2              ld                      s11,56(sp)
0x00012c8e:  8a022703          lw                      a4,-1888(tp)
0x00012c92:  00cd2683          lw                      a3,12(s10)
0x00012c96:  cf5d              beqz                    a4,190                  # 0x12d54

----------------
IN: _IO_cleanup
0x00012d54:  00cd2683          lw                      a3,12(s10)
0x00012d58:  f2a9              bnez                    a3,-190                 # 0x12c9a

----------------
IN: _IO_cleanup
0x00012d5a:  4c01bc23          sd                      zero,1240(gp)
0x00012d5e:  4c01a823          sw                      zero,1232(gp)
0x00012d62:  b781              j                       -192                    # 0x12ca2

----------------
IN: _IO_cleanup
0x00012ca2:  855a              mv                      a0,s6
0x00012ca4:  584000ef          jal                     ra,1412                 # 0x13228

----------------
IN: _IO_cleanup
0x00012ca8:  f8843703          ld                      a4,-120(s0)
0x00012cac:  000ab783          ld                      a5,0(s5)
0x00012cb0:  8fb9              xor                     a5,a5,a4
0x00012cb2:  4701              mv                      a4,zero
0x00012cb4:  0e079963          bnez                    a5,242                  # 0x12da6

----------------
IN: _IO_cleanup
0x00012cb8:  60ea              ld                      ra,152(sp)
0x00012cba:  644a              ld                      s0,144(sp)
0x00012cbc:  64aa              ld                      s1,136(sp)
0x00012cbe:  7aa6              ld                      s5,104(sp)
0x00012cc0:  7b06              ld                      s6,96(sp)
0x00012cc2:  6d06              ld                      s10,64(sp)
0x00012cc4:  854e              mv                      a0,s3
0x00012cc6:  79e6              ld                      s3,120(sp)
0x00012cc8:  610d              addi                    sp,sp,160
0x00012cca:  8082              ret                     

----------------
IN: __run_exit_handlers
0x00010fae:  856a              mv                      a0,s10
0x00010fb0:  6f3070ef          jal                     ra,32498                # 0x18ea2

----------------
IN: _exit
0x00018ea2:  1141              addi                    sp,sp,-16
0x00018ea4:  e422              sd                      s0,8(sp)
0x00018ea6:  0800              addi                    s0,sp,16
0x00018ea8:  05e00893          addi                    a7,zero,94
0x00018eac:  00000073          ecall                   

